(dp0
I379906
VParse String to Float or Int
p1
sI3437059
VDoes Python have a string contains substring method?
p2
sI4265988
VGenerate random numbers with a given (numerical) distribution
p3
sI843277
VHow do I check if a variable exists?
p4
sI546321
VHow do I calculate the date six months from the current date using the datetime Python module?
p5
sI237079
VHow to get file creation & modification date/times in Python?
p6
sI6159900
VCorrect way to write line to file in Python
p7
sI899103
VWriting a list to a file with Python
p8
sI3939361
VRemove specific characters from a string in python
p9
sI9001509
VHow can I sort a dictionary by key?
p10
sI2990121
VHow do I loop through a Python list by twos?
p11
sI26443308
VFind last occurrence of character in string Python
p12
sI4174941
VHow to sort a list of lists by a specific index of the inner list?
p13
sI3207219
VHow to list all files of a directory in Python
p14
sI2972212
VCreating an empty list in Python
p15
sI3964681
VFind all files in directory with extension .txt in Python
p16
sI1514553
VHow to declare an array in Python?
p17
sI2612802
VHow to clone or copy a list?
p18
sI402504
VHow to determine the variable type in Python?
p19
sI275018
VHow can I remove (chomp) a newline in Python?
p20
sI952914
VMaking a flat list out of list of lists in Python
p21
sI276052
VHow to get current CPU and RAM usage in Python?
p22
sI5137497
VFind current directory and file's directory
p23
sI930397
VGetting the last element of a list in Python
p24
sI961632
VConverting integer to string in Python?
p25
sI1712227
VHow to get the size of a list
p26
sI1720421
VHow to append list to second list (concatenate lists)
p27
sI209513
VConvert hex string to int in Python
p28
sI642154
VHow to convert strings into integers in Python?
p29
sI7961363
VRemoving duplicates in lists
p30
sI6996603
VDelete a file or folder in Python
p31
sI2269827
VHow to convert an int to a hex string?
p32
sI9257094
VHow to change a string into uppercase
p33
sI730764
VTry/Except in Python: How do you properly ignore Exceptions?
p34
sI70797
VPython: user input and commandline arguments
p35
sI4706499
VHow do you append to a file in Python?
p36
sI22676
VHow do I download a file over HTTP using Python?
p37
sI739993
VHow can I get a list of locally installed Python modules?
p38
sI6797984
VHow to convert string to lowercase in Python?
p39
sI1207457
VConvert a Unicode string to a string in Python (containing extra symbols)
p40
sI3294889
VIterating over dictionaries using for loops in Python
p41
sI7571635
VFastest way to check if a value exist in a list
p42
sI1093322
VHow do I check what version of Python is running my script?
p43
sI5618878
VHow to convert list to string
p44
sI3277503
VHow to read a file line by line into a list with Python
p45
sI5844672
VDelete an element from a dictionary
p46
sI16296643
VConvert tuple to list and back
p47
sI4004550
VConverting string series to float list in python
p48
sI10543303
Vnumber of values in a list greater than a certain number
p49
sI432842
VHow do you get the logical xor of two variables in Python?
p50
sI1303243
VHow to find out if a Python object is a string?
p51
sI163542
VPython - How do I pass a string into subprocess.Popen (using the stdin argument)?
p52
sI306400
VHow do I randomly select an item from a list using Python?
p53
sI3996904
VGenerate random integers between 0 and 9
p54
sI627435
VHow to remove an element from a list by index in Python?
p55
sI1773805
VHow can I parse a YAML file in Python
p56
sI663171
VIs there a way to substring a string in Python?
p57
sI1185524
VHow to trim whitespace (including tabs)?
p58
sI354038
VHow do I check if a string is a number (float) in Python?
p59
sI2600191
VHow can I count the occurrences of a list item in Python?
p60
sI845058
VHow to get line count cheaply in Python?
p61
sI6416131
VPython add new item to dictionary
p62
sI53513
VBest way to check if a list is empty
p63
sI849674
VSimple threading in Python 2.6 using thread.start_new_thread()
p64
sI8270092
VPython remove all whitespace in a string
p65
sI227459
VASCII value of a character in Python
p66
sI931092
VReverse a string in Python
p67
sI415511
VHow to get current time in Python
p68
sI14043934
Vpython time offset
p69
sI3940128
VHow can I reverse a list in python?
p70
sI1949318
VChecking if a website is up via Python
p71
sI2052390
VManually raising (throwing) an exception in Python
p72
sI2331943
VHow to decode JSON with Python
p73
sI273192
VHow to check if a directory exists and create it if necessary?
p74
sI4020539
VProcess escape sequences in a string in Python
p75
sI21129020
VHow to fix: "UnicodeDecodeError: 'ascii' codec can't decode byte"
p76
sI1854
VPython: What OS am I running on?
p77
sI613183
VSort a Python dictionary by value
p78
sI3501382
VChecking whether a variable is an integer or not
p79
sI89228
VCalling an external command in Python
p80
sI493386
VHow to print in Python without newline or space?
p81
sI311627
VHow to print date in a regular format in Python?
p82
sI1024847
VAdd key to a dictionary in Python?
p83
sI120656
VDirectory listing in Python
p84
sI2150739
VISO Time (ISO 8601) in Python?
p85
sI4641765
VAdd to integers in a list
p86
sI1747817
VCreate a dictionary with list comprehension in Python
p87
sI2793324
VIs there a simple way to delete a list element by value in python?
p88
sI123198
VHow do I copy a file in python?
p89
sI1602934
VCheck if a given key already exists in a dictionary
p90
sI9573244
VMost elegant way to check if the string is empty in Python?
p91
sI743806
VSplit string into a list in Python
p92
sI518021
VGetting the length of an array in Python
p93
sI510348
VHow can I make a time delay in Python?
p94
sI82831
VHow do I check whether a file exists using Python?
p95
sI510357
VPython read a single character from the user
p96
sI1450393
VHow do you read from stdin in Python?
p97
sI15411107
VDelete a dictionary item if the key exists
p98
sI466345
VConverting string into datetime
p99
sI8177079
VPython: take the content of a list and append it to another list
p100
sI455612
VLimiting floats to two decimal points
p101
sI73663
VTerminating a Python script
p102
sI1476
VHow do you express binary literals in Python?
p103
sI761804
VTrimming a string in Python
p104
sI4476373
VSimple URL GET/POST function in Python
p105
sI247770
VRetrieving python module path
p106
sI4906977
VAccess environment variables from Python
p107
sI1186789
VWhat is the best way to call a Python script from another Python script?
p108
sI2407398
VHow to merge lists into a list of tuples in Python?
p109
sI19602931
VBasic http file downloading and saving to disk in python?
p110
sI4588628
VFind indices of elements equal to zero from numpy array
p111
s.