(dp0
I18915075
(dp1
S'answer_posts'
p2
(lp3
(dp4
S'snippets'
p5
(lp6
(dp7
S'code'
p8
Vtry{\u000a    SimpleDateFormat dateFormat = new SimpleDateFormat("yyyy-MM-dd hh:mm:ss.SSS");\u000a    Date parsedDate = dateFormat.parse(yourString);\u000a    Timestamp timestamp = new java.sql.Timestamp(parsedDate.getTime());\u000a}catch(Exception e){//this generic but you can control another types of exception\u000a look the origin of excption \u000a}\u000a
p9
sS'is_normalized'
p10
I00
sasS'score'
p11
I46
sS'id'
p12
I18915260
sS'rank'
p13
I0
sa(dp14
g5
(lp15
(dp16
g8
S'import java.sql.Timestamp;\nimport java.text.DateFormat;\nimport java.text.ParseException;\nimport java.text.SimpleDateFormat;\nimport java.util.Date;\n\npublic class Util {\n\n    public static Timestamp convertStringToTimestamp(String str_date) {\n        try {\n            DateFormat formatter;\n            formatter = new SimpleDateFormat("dd/MM/yyyy");\n            Date date = formatter.parse(str_date);\n            java.sql.Timestamp timeStampDate = new Timestamp(date.getTime());\n            return timeStampDate;\n        } catch (ParseException e) {\n            System.out.println("Exception :" + e);\n            return null;\n        }\n    }\n}'
p17
sg10
I01
sasg11
I8
sg12
I30341685
sg13
I1
sa(dp18
g5
(lp19
(dp20
g8
S'Date date = new Date();\nTimestamp timestamp = new Timestamp(date.getTime());\nTimestamp myTimeStamp = timestamp;'
p21
sg10
I01
sasg11
I2
sg12
I18915163
sg13
I2
sasS'title'
p22
VJava: Convert String to TimeStamp
p23
ssI88838
(dp24
g2
(lp25
(dp26
g5
(lp27
(dp28
g8
S'String s = "some text here";\nbyte[] b = s.getBytes("UTF-8");'
p29
sg10
I01
sa(dp30
g8
S'byte[] b = { (byte) 99, (byte) 97, (byte) 116 };\nString s = new String(b, "US-ASCII");'
p31
sg10
I01
sasg11
I234
sg12
I88863
sg13
I0
sa(dp32
g5
(lp33
(dp34
g8
Vimport java.nio.charset.Charset;\u000a\u000aprivate final Charset UTF8_CHARSET = Charset.forName("UTF-8");\u000a\u000aString decodeUTF8(byte[] bytes) {\u000a    return new String(bytes, UTF8_CHARSET);\u000a}\u000a\u000abyte[] encodeUTF8(String string) {\u000a    return string.getBytes(UTF8_CHARSET);\u000a}\u000a
p35
sg10
I00
sasg11
I71
sg12
I3386646
sg13
I1
sa(dp36
g5
(lp37
sg11
I14
sg12
I91774
sg13
I2
sasg22
VHow to convert Strings to and from UTF8 byte arrays in Java
p38
ssI7347856
(dp39
g2
(lp40
(dp41
g5
(lp42
(dp43
g8
S'List<String> myList = new ArrayList<String>(Arrays.asList(s.split(",")));'
p44
sg10
I01
sa(dp45
g8
S'String s = "lorem,ipsum,dolor,sit,amet";\nList<String> myList = new ArrayList<String>(Arrays.asList(s.split(",")));\nSystem.out.println(myList);'
p46
sg10
I01
sasg11
I138
sg12
I7347895
sg13
I0
sa(dp47
g5
(lp48
(dp49
g8
S'String s1 = "[a,b,c,d]";\nString replace = s1.replace("[", "");\nSystem.out.println(replace);\nString replace1 = replace.replace("]", "");\nSystem.out.println(replace1);\nList<String> myList = new ArrayList<String>(Arrays.asList(replace1.split(",")));\nSystem.out.println(myList.toString());'
p50
sg10
I01
sasg11
I18
sg12
I7347999
sg13
I1
sa(dp51
g5
(lp52
(dp53
g8
S'public ArrayList<Character> convertStringToArraylist(String str) {\n    ArrayList<Character> charList = new ArrayList<Character>();\n    for (int i = 0; i < str.length(); i++) {\n        charList.add(str.charAt(i));\n    }\n    return charList;\n}'
p54
sg10
I01
sa(dp55
g8
S'public static ArrayList<String> convertStringArrayToArraylist(String[] strArr) {\n    ArrayList<String> stringList = new ArrayList<String>();\n    for (String s : strArr) {\n        stringList.add(s);\n    }\n    return stringList;\n}'
p56
sg10
I01
sasg11
I2
sg12
I7348024
sg13
I2
sasg22
VHow to convert a String into an ArrayList?
p57
ssI9102318
(dp58
g2
(lp59
(dp60
g5
(lp61
(dp62
g8
S'Double d = 5.25;\nInteger i = d.intValue();'
p63
sg10
I01
sa(dp64
g8
S'double d = 5.25;\nint i = (int) d;'
p65
sg10
I01
sasg11
I379
sg12
I9102359
sg13
I0
sa(dp66
g5
(lp67
sg11
I321
sg12
I9102330
sg13
I1
sa(dp68
g5
(lp69
(dp70
g8
S'double d = 9.5;\nint i = (int) d;\nDouble D = 9.5;\nint i = Integer.valueOf(D.intValue());\ndouble d = 9.5;\nLong L = Math.round(d);\nint i = Integer.valueOf(L.intValue());'
p71
sg10
I01
sasg11
I30
sg12
I19998172
sg13
I2
sasg22
VCast Double to Integer in Java
p72
ssI2627992
(dp73
g2
(lp74
(dp75
g5
(lp76
(dp77
g8
Vjava -Duser.timezone=GMT ... <main-class>\u000a
p78
sg10
I00
sa(dp79
g8
VCalendar tzCal = Calendar.getInstance(TimeZone.getTimeZone("GMT"));\u000aResultSet rs = ...;\u000awhile (rs.next()) {\u000a    Date dateValue = rs.getDate("DateColumn", tzCal);\u000a    // Other fields and calculations\u000a}\u000a
p80
sg10
I00
sa(dp81
g8
S'Calendar tzCal = Calendar.getInstance(TimeZone.getTimeZone("GMT"));\nPreparedStatement ps = conn.createPreparedStatement("update ...");\nps.setDate("DateColumn", dateValue, tzCal);\nps.executeUpdate();'
p82
sg10
I01
sa(dp83
g8
S'TimeZone tz = TimeZone.getTimeZone("<local-time-zone>");\nDate dateValue = rs.getDate("DateColumn");\nCalendar calValue = Calendar.getInstance(tz);\ncalValue.setTime(dateValue);'
p84
sg10
I01
sasg11
I82
sg12
I2628560
sg13
I0
sa(dp85
g5
(lp86
sg11
I9
sg12
I5053005
sg13
I1
sa(dp87
g5
(lp88
(dp89
g8
S'System.setProperty("user.timezone", "EST");'
p90
sg10
I01
sasg11
I9
sg12
I14858183
sg13
I2
sasg22
VForce Java timezone as GMT/UTC
p91
ssI1448858
(dp92
g2
(lp93
(dp94
g5
(lp95
sg11
I44
sg12
I24415186
sg13
I0
sa(dp96
g5
(lp97
(dp98
g8
S'System.out.println((char) 27 + "[31mThis text would show up red" + (char) 27 + "[0m");'
p99
sg10
I01
sasg11
I30
sg12
I25511009
sg13
I1
sa(dp100
g5
(lp101
sg11
I25
sg12
I1448866
sg13
I2
sasg22
VHow to color System.out.println output?
p102
ssI2369967
(dp103
g2
(lp104
(dp105
g5
(lp106
(dp107
g8
S'int[] arr = null;\nif (arr == null) {\n    System.out.println("array is null");\n}'
p108
sg10
I01
sa(dp109
g8
S'arr = new int[0];\nif (arr.length == 0) {\n    System.out.println("array is empty");\n}'
p110
sg10
I01
sa(dp111
g8
S'Object[] arr = new Object[10];\nboolean empty = true;\nfor (int i = 0; i < arr.length; i++) {\n    if (arr[i] != null) {\n        empty = false;\n        break;\n    }\n}'
p112
sg10
I01
sa(dp113
g8
S'Object[] arr = new Object[10];\nboolean empty = true;\nfor (Object ob : arr) {\n    if (ob != null) {\n        empty = false;\n        break;\n    }\n}'
p114
sg10
I01
sasg11
I136
sg12
I2369983
sg13
I0
sa(dp115
g5
(lp116
sg11
I15
sg12
I32383778
sg13
I1
sa(dp117
g5
(lp118
(dp119
g8
Vint[] i = ...;\u000aif (i.length == 0) { } // no elements in the array\u000a
p120
sg10
I00
sa(dp121
g8
S'if (i == null || i.length == 0) {\n}'
p122
sg10
I01
sasg11
I14
sg12
I2369989
sg13
I2
sasg22
Vhow we check for null array in java
p123
ssI1892765
(dp124
g2
(lp125
(dp126
g5
(lp127
sg11
I576
sg12
I1892778
sg13
I0
sa(dp128
g5
(lp129
(dp130
g8
S'private String capitalize(final String line) {\n    return Character.toUpperCase(line.charAt(0)) + line.substring(1);\n}'
p131
sg10
I01
sasg11
I200
sg12
I11149580
sg13
I1
sa(dp132
g5
(lp133
(dp134
g8
S"public static String capitalizeString(String string) {\n    char[] chars = string.toLowerCase().toCharArray();\n    boolean found = false;\n    for (int i = 0; i < chars.length; i++) {\n        if (!found && Character.isLetter(chars[i])) {\n            chars[i] = Character.toUpperCase(chars[i]);\n            found = true;\n        } else if (Character.isWhitespace(chars[i]) || chars[i] == '.' || chars[i] == '\\'') {\n            found = false;\n        }\n    }\n    return String.valueOf(chars);\n}"
p135
sg10
I01
sasg11
I55
sg12
I1892812
sg13
I2
sasg22
VHow to capitalize the first character of each word in a string
p136
ssI320542
(dp137
g2
(lp138
(dp139
g5
(lp140
(dp141
g8
S'return new File(MyClass.class.getProtectionDomain().getCodeSource().getLocation().toURI().getPath());'
p142
sg10
I01
sasg11
I401
sg12
I320595
sg13
I0
sa(dp143
g5
(lp144
(dp145
g8
S'String path = Test.class.getProtectionDomain().getCodeSource().getLocation().getPath();\nString decodedPath = URLDecoder.decode(path, "UTF-8");'
p146
sg10
I01
sasg11
I164
sg12
I6849255
sg13
I1
sa(dp147
g5
(lp148
(dp149
g8
S'public static URL getLocation(final Class<?> c) {\n    if (c == null)\n        return null;\n    try {\n        final URL codeSourceLocation = c.getProtectionDomain().getCodeSource().getLocation();\n        if (codeSourceLocation != null)\n            return codeSourceLocation;\n    } catch (final SecurityException e) {\n    } catch (final NullPointerException e) {\n    }\n    final URL classResource = c.getResource(c.getSimpleName() + ".class");\n    if (classResource == null)\n        return null;\n    final String url = classResource.toString();\n    final String suffix = c.getCanonicalName().replace(\'.\', \'/\') + ".class";\n    if (!url.endsWith(suffix))\n        return null;\n    final String base = url.substring(0, url.length() - suffix.length());\n    String path = base;\n    if (path.startsWith("jar:"))\n        path = path.substring(4, path.length() - 2);\n    try {\n        return new URL(path);\n    } catch (final MalformedURLException e) {\n        e.printStackTrace();\n        return null;\n    }\n}\npublic static File urlToFile(final URL url) {\n    return url == null ? null : urlToFile(url.toString());\n}\npublic static File urlToFile(final String url) {\n    String path = url;\n    if (path.startsWith("jar:")) {\n        final int index = path.indexOf("!/");\n        path = path.substring(4, index);\n    }\n    try {\n        if (PlatformUtils.isWindows() && path.matches("file:[A-Za-z]:.*")) {\n            path = "file:/" + path.substring(5);\n        }\n        return new File(new URL(path).toURI());\n    } catch (final MalformedURLException e) {\n    } catch (final URISyntaxException e) {\n    }\n    if (path.startsWith("file:")) {\n        path = path.substring(5);\n        return new File(path);\n    }\n    throw new IllegalArgumentException("Invalid URL: " + url);\n}'
p150
sg10
I01
sasg11
I120
sg12
I12733172
sg13
I2
sasg22
VHow to get the path of a running JAR file?
p151
ssI15039519
(dp152
g2
(lp153
(dp154
g5
(lp155
(dp156
g8
S'ArrayList<String> mylist = new ArrayList<String>();\nmylist.add(mystring);'
p157
sg10
I01
sa(dp158
g8
S'String[] myarray = new String[numberofstrings];\nmyarray[23] = string24;'
p159
sg10
I01
sasg11
I63
sg12
I15039537
sg13
I0
sa(dp160
g5
(lp161
(dp162
g8
S'String[] str = new String[10];'
p163
sg10
I01
sa(dp164
g8
Vstr[0] = "value1"\u000astr[1] = "value2"\u000astr[2] = "value3"\u000astr[3] = "value4"\u000astr[4] = "value5"\u000astr[5] = "value6"\u000astr[6] = "value7"\u000astr[7] = "value8"\u000astr[8] = "value9"\u000astr[9] = "value10"\u000a
p165
sg10
I00
sa(dp166
g8
S'str.add("Value1");'
p167
sg10
I01
sa(dp168
g8
S'String s = str.get(0);'
p169
sg10
I01
sa(dp170
g8
S'int nCount = str.size();'
p171
sg10
I01
sasg11
I12
sg12
I15039970
sg13
I1
sa(dp172
g5
(lp173
sg11
I1
sg12
I15039581
sg13
I2
sasg22
VHow to dynamically add elements to String array?
p174
ssI922528
(dp175
g2
(lp176
(dp177
g5
(lp178
(dp179
g8
S'SortedSet<String> keys = new TreeSet<String>(map.keySet());\nfor (String key : keys) {\n    String value = map.get(key);\n}'
p180
sg10
I01
sa(dp181
g8
V// placed inline for the demonstration, but doesn't have to be an anonymous class\u000aComparator<Foo> comparator = new Comparator<Foo>() {\u000a  public int compare(Foo o1, Foo o2) {\u000a    ...\u000a  }\u000a}\u000aSortedSet<Foo> keys = new TreeSet<Foo>(comparator);\u000akeys.addAll(map.keySet());\u000a
p182
sg10
I00
sasg11
I456
sg12
I922533
sg13
I0
sa(dp183
g5
(lp184
(dp185
g8
S'List sortedKeys = new ArrayList(yourMap.keySet());\nCollections.sort(sortedKeys);'
p186
sg10
I01
sasg11
I99
sg12
I922624
sg13
I1
sa(dp187
g5
(lp188
(dp189
g8
S'Map<String, String> map = new HashMap<String, String>();\nMap<String, String> treeMap = new TreeMap<String, String>(map);\nfor (String str : treeMap.keySet()) {\n    System.out.println(str);\n}'
p190
sg10
I01
sasg11
I35
sg12
I8036079
sg13
I2
sasg22
Vhow to sort Map values by key in Java
p191
ssI240546
(dp192
g2
(lp193
(dp194
g5
(lp195
(dp196
g8
S'public static String html2text(String html) {\n    return Jsoup.parse(html).text();\n}'
p197
sg10
I01
sasg11
I414
sg12
I3149645
sg13
I0
sa(dp198
g5
(lp199
(dp200
g8
S'android.text.Html.fromHtml(instruction).toString();'
p201
sg10
I01
sasg11
I234
sg12
I6385950
sg13
I1
sa(dp202
g5
(lp203
(dp204
g8
S'replaceAll("\\\\<[^>]*>", "");'
p205
sg10
I01
sasg11
I63
sg12
I240630
sg13
I2
sasg22
VRemove HTML tags from a String
p206
ssI2047003
(dp207
g2
(lp208
(dp209
g5
(lp210
(dp211
g8
S'public class Print {\n\n    public static void main(final String[] args) {\n        List<Dog> list = new ArrayList<Dog>();\n        Dog e = new Dog("Tommy");\n        list.add(e);\n        list.add(new Dog("tiger"));\n        System.out.println(list);\n        for (Dog d : list) {\n            System.out.println(d);\n        }\n    }\n\n    private static class Dog {\n\n        private final String name;\n\n        public Dog(final String name) {\n            this.name = name;\n        }\n\n        @Override\n        public String toString() {\n            return name;\n        }\n    }\n}'
p212
sg10
I01
sa(dp213
g8
V[Tommy, tiger]  \u000aTommy  \u000atiger\u000a
p214
sg10
I00
sasg11
I12
sg12
I2047092
sg13
I0
sa(dp215
g5
(lp216
(dp217
g8
S'System.out.println(list.get(index));'
p218
sg10
I01
sasg11
I5
sg12
I2047048
sg13
I1
sa(dp219
g5
(lp220
sg11
I2
sg12
I2047017
sg13
I2
sasg22
Vprint arraylist element?
p221
ssI3914404
(dp222
g2
(lp223
(dp224
g5
(lp225
(dp226
g8
S'TimeZone tz = TimeZone.getTimeZone("UTC");\nDateFormat df = new SimpleDateFormat("yyyy-MM-dd\'T\'HH:mm\'Z\'");\ndf.setTimeZone(tz);\nString nowAsISO = df.format(new Date());'
p227
sg10
I01
sasg11
I185
sg12
I3914973
sg13
I0
sa(dp228
g5
(lp229
(dp230
g8
S'TimeZone tz = TimeZone.getTimeZone("UTC");\nDateFormat df = new SimpleDateFormat("yyyy-MM-dd\'T\'HH:mm\'Z\'");\ndf.setTimeZone(tz);\nString nowAsISO = df.format(new Date());'
p231
sg10
I01
sasg11
I165
sg12
I3914498
sg13
I1
sa(dp232
g5
(lp233
(dp234
g8
S'thisMoment = DateTimeFormatter.ofPattern("yyyy-MM-dd\'T\'HH:mmX").withZone(ZoneOffset.UTC).format(Instant.now());'
p235
sg10
I01
sa(dp236
g8
S'thisMoment = String.format("%tFT%<tRZ", Calendar.getInstance(TimeZone.getTimeZone("Z")));'
p237
sg10
I01
sasg11
I84
sg12
I3914546
sg13
I2
sasg22
VHow to get current moment in ISO 8601 format with date, hour, and minute?
p238
ssI8444710
(dp239
g2
(lp240
(dp241
g5
(lp242
(dp243
g8
S'boolean isPalindrome(String s) {\n    int n = s.length();\n    for (int i = 0; i < (n / 2); ++i) {\n        if (s.charAt(i) != s.charAt(n - i - 1)) {\n            return false;\n        }\n    }\n    return true;\n}'
p244
sg10
I01
sasg11
I85
sg12
I8444800
sg13
I0
sa(dp245
g5
(lp246
(dp247
g8
S'if (s.equals(new StringBuilder(s).reverse().toString()))\n    ;'
p248
sg10
I01
sasg11
I22
sg12
I8444890
sg13
I1
sa(dp249
g5
(lp250
(dp251
g8
S'public class Palindrome {\n\n    public static boolean isPalindrome(String stringToTest) {\n        String workingCopy = removeJunk(stringToTest);\n        String reversedCopy = reverse(workingCopy);\n        return reversedCopy.equalsIgnoreCase(workingCopy);\n    }\n\n    protected static String removeJunk(String string) {\n        int i, len = string.length();\n        StringBuffer dest = new StringBuffer(len);\n        char c;\n        for (i = (len - 1); i >= 0; i--) {\n            c = string.charAt(i);\n            if (Character.isLetterOrDigit(c)) {\n                dest.append(c);\n            }\n        }\n        return dest.toString();\n    }\n\n    protected static String reverse(String string) {\n        StringBuffer sb = new StringBuffer(string);\n        return sb.reverse().toString();\n    }\n\n    public static void main(String[] args) {\n        String string = "Madam, I\'m Adam.";\n        System.out.println();\n        System.out.println("Testing whether the following " + "string is a palindrome:");\n        System.out.println("    " + string);\n        System.out.println();\n        if (isPalindrome(string)) {\n            System.out.println("It IS a palindrome!");\n        } else {\n            System.out.println("It is NOT a palindrome!");\n        }\n        System.out.println();\n    }\n}'
p252
sg10
I01
sasg11
I7
sg12
I8444758
sg13
I2
sasg22
VEasiest way to check if a string is palindrome
p253
ssI75175
(dp254
g2
(lp255
(dp256
g5
(lp257
(dp258
g8
S'private static class SomeContainer<E> {\n\n    E createContents(Class<E> clazz) {\n        return clazz.newInstance();\n    }\n}'
p259
sg10
I01
sasg11
I240
sg12
I75254
sg13
I0
sa(dp260
g5
(lp261
(dp262
g8
Vpublic abstract class Foo<E> {\u000a\u000a  public E instance;  \u000a\u000a  public Foo() throws Exception {\u000a    instance = ((Class)((ParameterizedType)this.getClass().\u000a       getGenericSuperclass()).getActualTypeArguments()[0]).newInstance();\u000a    ...\u000a  }\u000a\u000a}\u000a
p263
sg10
I00
sa(dp264
g8
S'assert (new Foo<Bar>() {\n}.instance instanceof Bar);'
p265
sg10
I01
sasg11
I104
sg12
I75345
sg13
I1
sa(dp266
g5
(lp267
(dp268
g8
S'interface Factory<E> {\n\n    E create();\n}\n\nclass SomeContainer<E> {\n\n    private final Factory<E> factory;\n\n    SomeContainer(Factory<E> factory) {\n        this.factory = factory;\n    }\n\n    E createContents() {\n        return factory.create();\n    }\n}'
p269
sg10
I01
sasg11
I77
sg12
I75528
sg13
I2
sasg22
VCreate instance of generic type in Java?
p270
ssI20363719
(dp271
g2
(lp272
(dp273
g5
(lp274
(dp275
g8
S'Map<String, Choice> result = choices.stream().collect(Collectors.toMap(Choice::getName, Function.identity()));'
p276
sg10
I01
sasg11
I696
sg12
I20363874
sg13
I0
sa(dp277
g5
(lp278
(dp279
g8
S'Map<String, List<Choice>> result = choices.stream().collect(Collectors.groupingBy(Choice::getName));'
p280
sg10
I01
sasg11
I117
sg12
I25453317
sg13
I1
sa(dp281
g5
(lp282
(dp283
g8
S'Map<String, Choice> result = choices.stream().collect(Collectors.toMap(Choice::getName, c -> c));'
p284
sg10
I01
sasg11
I63
sg12
I28779227
sg13
I2
sasg22
VJava 8 List<V> into Map<K, V>
p285
ssI1946668
(dp286
g2
(lp287
(dp288
g5
(lp289
(dp290
g8
S'Collections.sort(unsortedList, new Comparator<Person>() {\n\n    @Override\n    public int compare(Person a, Person b) {\n        return b.getName().compareTo(a.getName());\n    }\n});'
p291
sg10
I01
sa(dp292
g8
S'Collections.sort(unsortedList, new Comparator<Person>() {\n\n    @Override\n    public int compare(Person a, Person b) {\n        return a.getName().compareTo(b.getName());\n    }\n});'
p293
sg10
I01
sa(dp294
g8
S'Collections.sort(personList, (Person a, Person b) -> b.getName().compareTo(a.getName()));'
p295
sg10
I01
sa(dp296
g8
S'personList.sort((a, b) -> b.getName().compareTo(a.getName()));'
p297
sg10
I01
sasg11
I68
sg12
I18206740
sg13
I0
sa(dp298
g5
(lp299
(dp300
g8
S'import java.util.*;\n\npublic class Person implements Comparable<Person> {\n\n    String name;\n\n    int age;\n\n    public Person(String name, int age) {\n        this.name = name;\n        this.age = age;\n    }\n\n    public String getName() {\n        return name;\n    }\n\n    public int getAge() {\n        return age;\n    }\n\n    public String toString() {\n        return name + " : " + age;\n    }\n\n    public int compareTo(Person p) {\n        return getName().compareTo(p.getName());\n    }\n\n    static class AgeComparator implements Comparator<Person> {\n\n        public int compare(Person p1, Person p2) {\n            int age1 = p1.getAge();\n            int age2 = p2.getAge();\n            if (age1 == age2)\n                return 0;\n            else if (age1 > age2)\n                return 1;\n            else\n                return -1;\n        }\n    }\n\n    public static void main(String[] args) {\n        List<Person> people = new ArrayList<Person>();\n        people.add(new Person("Homer", 38));\n        people.add(new Person("Marge", 35));\n        people.add(new Person("Bart", 15));\n        people.add(new Person("Lisa", 13));\n        Collections.sort(people);\n        System.out.println("Sort by Natural order");\n        System.out.println("\\t" + people);\n        Collections.sort(people, Collections.reverseOrder());\n        System.out.println("Sort by reverse natural order");\n        System.out.println("\\t" + people);\n        Collections.sort(people, new Person.AgeComparator());\n        System.out.println("Sort using Age Comparator");\n        System.out.println("\\t" + people);\n        Collections.sort(people, Collections.reverseOrder(new Person.AgeComparator()));\n        System.out.println("Sort using Reverse Age Comparator");\n        System.out.println("\\t" + people);\n    }\n}'
p301
sg10
I01
sasg11
I54
sg12
I1947527
sg13
I1
sa(dp302
g5
(lp303
(dp304
g8
VString[] s = {"a", "x", "y"};\u000aArrays.sort(s, new Comparator<String>() {\u000a\u000a    @Override\u000a    public int compare(String o1, String o2) {\u000a        return o2.compareTo(o1);\u000a    }\u000a});\u000aSystem.out.println(Arrays.toString(s));\u000a\u000a-> [y, x, a]\u000a
p305
sg10
I00
sasg11
I14
sg12
I1946723
sg13
I2
sasg22
VSorting using Comparator- Descending order (User defined classes)
p306
ssI4340653
(dp307
g2
(lp308
(dp309
g5
(lp310
(dp311
g8
S'ServletContext context = getContext();\nString fullPath = context.getRealPath("/WEB-INF/test/foo.txt");'
p312
sg10
I01
sa(dp313
g8
S'ServletContext context = getContext();\nURL resourceUrl = context.getResource("/WEB-INF/test/foo.txt");'
p314
sg10
I01
sa(dp315
g8
S'InputStream resourceContent = context.getResourceAsStream("/WEB-INF/test/foo.txt");'
p316
sg10
I01
sasg11
I117
sg12
I4342095
sg13
I0
sa(dp317
g5
(lp318
(dp319
g8
S'InputStream resource = getServletContext().getResourceAsStream("/WEB-INF/my.json");'
p320
sg10
I01
sasg11
I0
sg12
I45041917
sg13
I1
sasg22
VFile path to resource in our war/WEB-INF folder?
p321
ssI960431
(dp322
g2
(lp323
(dp324
g5
(lp325
(dp326
g8
S'int[] array = list.stream().mapToInt(i -> i).toArray();'
p327
sg10
I01
sasg11
I234
sg12
I23945015
sg13
I0
sa(dp328
g5
(lp329
(dp330
g8
VList<Integer> list = ...\u000aint[] ints = Ints.toArray(list);\u000a
p331
sg10
I00
sasg11
I164
sg12
I3176296
sg13
I1
sa(dp332
g5
(lp333
(dp334
g8
VList<Integer> myList;\u000a ... assign and fill the list\u000aint[] intArray = ArrayUtils.toPrimitive(myList.toArray(new Integer[myList.size()]));\u000a
p335
sg10
I00
sa(dp336
g8
Vstatic final Integer[] NO_INTS = new Integer[0];\u000a   ....\u000aint[] intArray2 = ArrayUtils.toPrimitive(myList.toArray(NO_INTS));\u000a
p337
sg10
I00
sasg11
I163
sg12
I960507
sg13
I2
sasg22
VHow to convert List<Integer> to int[] in Java?
p338
ssI1816673
(dp339
g2
(lp340
(dp341
g5
(lp342
(dp343
g8
S'File f = new File(filePathString);\nif (f.exists() && !f.isDirectory()) {\n}'
p344
sg10
I01
sasg11
I979
sg12
I1816676
sg13
I0
sa(dp345
g5
(lp346
(dp347
g8
S'new File("path/to/file.txt").isFile();'
p348
sg10
I01
sasg11
I341
sg12
I1816707
sg13
I1
sa(dp349
g5
(lp350
(dp351
g8
Vimport java.nio.file.*;\u000a\u000aPath path = Paths.get(filePathString);\u000a\u000aif (Files.exists(path)) {\u000a  // file exist\u000a}\u000a\u000aif (Files.notExists(path)) {\u000a  // file is not exist\u000a}\u000a
p352
sg10
I00
sa(dp353
g8
S'if (Files.isDirectory(path)) {\n}\nif (Files.isRegularFile(path)) {\n}'
p354
sg10
I01
sasg11
I91
sg12
I18371026
sg13
I2
sasg22
VHow do I check if a file exists in Java?
p355
ssI2364856
(dp356
g2
(lp357
(dp358
g5
(lp359
(dp360
g8
S'boolean[] array = new boolean[size];'
p361
sg10
I01
sa(dp362
g8
S'Boolean[] array = new Boolean[size];\nArrays.fill(array, Boolean.FALSE);'
p363
sg10
I01
sasg11
I200
sg12
I2364887
sg13
I0
sa(dp364
g5
(lp365
sg11
I11
sg12
I2364873
sg13
I1
sa(dp366
g5
(lp367
sg11
I7
sg12
I2364891
sg13
I2
sasg22
Vinitializing a boolean array in java
p368
ssI2966334
(dp369
g2
(lp370
(dp371
g5
(lp372
(dp373
g8
S'frame.add(new JLabel("<html>Text color: <font color=\'red\'>red</font></html>"));'
p374
sg10
I01
sasg11
I98
sg12
I2966363
sg13
I0
sa(dp375
g5
(lp376
(dp377
g8
S'JLabel title = new JLabel("I love stackoverflow!", JLabel.CENTER);\ntitle.setForeground(Color.white);'
p378
sg10
I01
sasg11
I37
sg12
I2966354
sg13
I1
sa(dp379
g5
(lp380
(dp381
g8
S'JLabel label = new JLabel("Text Color: Red");\nlabel.setForeground(Color.red);'
p382
sg10
I01
sasg11
I17
sg12
I2966359
sg13
I2
sasg22
VHow do I set the colour of a label (coloured text) in Java?
p383
ssI4040001
(dp384
g2
(lp385
(dp386
g5
(lp387
(dp388
g8
S'if (max < numbersNeeded) {\n    throw new IllegalArgumentException("Can\'t ask for more numbers than are available");\n}\nRandom rng = new Random();\nSet<Integer> generated = new LinkedHashSet<Integer>();\nwhile (generated.size() < numbersNeeded) {\n    Integer next = rng.nextInt(max) + 1;\n    generated.add(next);\n}'
p389
sg10
I01
sasg11
I123
sg12
I4040014
sg13
I0
sa(dp390
g5
(lp391
(dp392
g8
S'import java.util.ArrayList;\nimport java.util.Random;\n\npublic class Test {\n\n    public static void main(String[] args) {\n        int size = 20;\n        ArrayList<Integer> list = new ArrayList<Integer>(size);\n        for (int i = 1; i <= size; i++) {\n            list.add(i);\n        }\n        Random rand = new Random();\n        while (list.size() > 0) {\n            int index = rand.nextInt(list.size());\n            System.out.println("Selected: " + list.remove(index));\n        }\n    }\n}'
p393
sg10
I01
sasg11
I14
sg12
I4040031
sg13
I1
sa(dp394
g5
(lp395
(dp396
g8
S'ArrayList<Integer> numbers = new ArrayList<Integer>();\nRandom randomGenerator = new Random();\nwhile (numbers.size() < 4) {\n    int random = randomGenerator.nextInt(4);\n    if (!numbers.contains(random)) {\n        numbers.add(random);\n    }\n}'
p397
sg10
I01
sasg11
I9
sg12
I10136855
sg13
I2
sasg22
VCreating random numbers with no duplicates
p398
ssI109383
(dp399
g2
(lp400
(dp401
g5
(lp402
(dp403
g8
S'import java.util.*;\n\npublic class MapUtil {\n\n    public static <K, V extends Comparable<? super V>> Map<K, V> sortByValue(Map<K, V> map) {\n        List<Map.Entry<K, V>> list = new LinkedList<Map.Entry<K, V>>(map.entrySet());\n        Collections.sort(list, new Comparator<Map.Entry<K, V>>() {\n\n            public int compare(Map.Entry<K, V> o1, Map.Entry<K, V> o2) {\n                return (o1.getValue()).compareTo(o2.getValue());\n            }\n        });\n        Map<K, V> result = new LinkedHashMap<K, V>();\n        for (Map.Entry<K, V> entry : list) {\n            result.put(entry.getKey(), entry.getValue());\n        }\n        return result;\n    }\n}'
p404
sg10
I01
sa(dp405
g8
S'import java.util.*;\nimport org.junit.*;\n\npublic class MapUtilTest {\n\n    @Test\n    public void testSortByValue() {\n        Random random = new Random(System.currentTimeMillis());\n        Map<String, Integer> testMap = new HashMap<String, Integer>(1000);\n        for (int i = 0; i < 1000; ++i) {\n            testMap.put("SomeString" + random.nextInt(), random.nextInt());\n        }\n        testMap = MapUtil.sortByValue(testMap);\n        Assert.assertEquals(1000, testMap.size());\n        Integer previous = null;\n        for (Map.Entry<String, Integer> entry : testMap.entrySet()) {\n            Assert.assertNotNull(entry.getValue());\n            if (previous != null) {\n                Assert.assertTrue(entry.getValue() >= previous);\n            }\n            previous = entry.getValue();\n        }\n    }\n}'
p406
sg10
I01
sa(dp407
g8
S'public static <K, V extends Comparable<? super V>> Map<K, V> sortByValue(Map<K, V> map) {\n    List<Map.Entry<K, V>> list = new LinkedList<>(map.entrySet());\n    Collections.sort(list, new Comparator<Map.Entry<K, V>>() {\n\n        @Override\n        public int compare(Map.Entry<K, V> o1, Map.Entry<K, V> o2) {\n            return (o1.getValue()).compareTo(o2.getValue());\n        }\n    });\n    Map<K, V> result = new LinkedHashMap<>();\n    for (Map.Entry<K, V> entry : list) {\n        result.put(entry.getKey(), entry.getValue());\n    }\n    return result;\n}'
p408
sg10
I01
sa(dp409
g8
S'public static <K, V extends Comparable<? super V>> Map<K, V> sortByValue(Map<K, V> map) {\n    return map.entrySet().stream().sorted(Map.Entry.comparingByValue()).collect(Collectors.toMap(Map.Entry::getKey, Map.Entry::getValue, (e1, e2) -> e1, LinkedHashMap::new));\n}'
p410
sg10
I01
sasg11
I623
sg12
I2581754
sg13
I0
sa(dp411
g5
(lp412
(dp413
g8
S'public class Testing {\n\n    public static void main(String[] args) {\n        HashMap<String, Double> map = new HashMap<String, Double>();\n        ValueComparator bvc = new ValueComparator(map);\n        TreeMap<String, Double> sorted_map = new TreeMap<String, Double>(bvc);\n        map.put("A", 99.5);\n        map.put("B", 67.4);\n        map.put("C", 67.4);\n        map.put("D", 67.3);\n        System.out.println("unsorted map: " + map);\n        sorted_map.putAll(map);\n        System.out.println("results: " + sorted_map);\n    }\n}\n\nclass ValueComparator implements Comparator<String> {\n\n    Map<String, Double> base;\n\n    public ValueComparator(Map<String, Double> base) {\n        this.base = base;\n    }\n\n    public int compare(String a, String b) {\n        if (base.get(a) >= base.get(b)) {\n            return -1;\n        } else {\n            return 1;\n        }\n    }\n}'
p414
sg10
I01
sa(dp415
g8
Vunsorted map: {D=67.3, A=99.5, B=67.4, C=67.4}\u000aresults: {D=67.3, B=67.4, C=67.4, A=99.5}\u000a
p416
sg10
I00
sasg11
I384
sg12
I1283722
sg13
I1
sa(dp417
g5
(lp418
(dp419
g8
S'valueComparator = Ordering.natural().onResultOf(Functions.forMap(map));'
p420
sg10
I01
sa(dp421
g8
S'valueComparator = Ordering.from(comparator).onResultOf(Functions.forMap(map));'
p422
sg10
I01
sa(dp423
g8
S'valueComparator = Ordering.natural().onResultOf(Functions.forMap(map)).compound(Ordering.natural());'
p424
sg10
I01
sa(dp425
g8
S'map = ImmutableSortedMap.copyOf(myOriginalMap, valueComparator);'
p426
sg10
I01
sa(dp427
g8
S'import static org.junit.Assert.assertEquals;\nimport java.util.HashMap;\nimport java.util.Map;\nimport java.util.TreeMap;\nimport com.google.common.base.Functions;\nimport com.google.common.collect.Ordering;\n\nclass ValueComparableMap<K extends Comparable<K>, V> extends TreeMap<K, V> {\n\n    private final Map<K, V> valueMap;\n\n    ValueComparableMap(final Ordering<? super V> partialValueOrdering) {\n        this(partialValueOrdering, new HashMap<K, V>());\n    }\n\n    private ValueComparableMap(Ordering<? super V> partialValueOrdering, HashMap<K, V> valueMap) {\n        super(partialValueOrdering.onResultOf(Functions.forMap(valueMap)).compound(Ordering.natural()));\n        this.valueMap = valueMap;\n    }\n\n    public V put(K k, V v) {\n        if (valueMap.containsKey(k)) {\n            remove(k);\n        }\n        valueMap.put(k, v);\n        return super.put(k, v);\n    }\n\n    public static void main(String[] args) {\n        TreeMap<String, Integer> map = new ValueComparableMap<String, Integer>(Ordering.natural());\n        map.put("a", 5);\n        map.put("b", 1);\n        map.put("c", 3);\n        assertEquals("b", map.firstKey());\n        assertEquals("a", map.lastKey());\n        map.put("d", 0);\n        assertEquals("d", map.firstKey());\n        map.put("d", 2);\n        assertEquals("b", map.firstKey());\n        map.put("e", 2);\n        assertEquals(5, map.size());\n        assertEquals(2, (int) map.get("e"));\n        assertEquals(2, (int) map.get("d"));\n    }\n}'
p428
sg10
I01
sa(dp429
g8
S'new ValueComparableMap(Ordering.natural());\nnew ValueComparableMap(Ordering.from(comparator));'
p430
sg10
I01
sasg11
I193
sg12
I3420912
sg13
I2
sasg22
VSort a Map<Key, Value> by values (Java)
p431
ssI4240080
(dp432
g2
(lp433
(dp434
g5
(lp435
(dp436
g8
S'public static void permutation(String str) {\n    permutation("", str);\n}\nprivate static void permutation(String prefix, String str) {\n    int n = str.length();\n    if (n == 0)\n        System.out.println(prefix);\n    else {\n        for (int i = 0; i < n; i++) permutation(prefix + str.charAt(i), str.substring(0, i) + str.substring(i + 1, n));\n    }\n}'
p437
sg10
I01
sasg11
I454
sg12
I4240323
sg13
I0
sa(dp438
g5
(lp439
sg11
I167
sg12
I4240098
sg13
I1
sa(dp440
g5
(lp441
(dp442
g8
S'public static ArrayList<String> permutation(String s) {\n    ArrayList<String> res = new ArrayList<String>();\n    if (s.length() == 1) {\n        res.add(s);\n    } else if (s.length() > 1) {\n        int lastIndex = s.length() - 1;\n        String last = s.substring(lastIndex);\n        String rest = s.substring(0, lastIndex);\n        res = merge(permutation(rest), last);\n    }\n    return res;\n}\npublic static ArrayList<String> merge(ArrayList<String> list, String c) {\n    ArrayList<String> res = new ArrayList<String>();\n    for (String s : list) {\n        for (int i = 0; i <= s.length(); ++i) {\n            String ps = new StringBuffer(s).insert(i, c).toString();\n            res.add(ps);\n        }\n    }\n    return res;\n}'
p443
sg10
I01
sasg11
I58
sg12
I19624586
sg13
I2
sasg22
VGenerating all permutations of a given string
p444
ssI11409621
(dp445
g2
(lp446
(dp447
g5
(lp448
(dp449
g8
S'for (int i = 0; i < 5; i++) System.out.println("    *********".substring(i, 5 + 2 * i));'
p450
sg10
I01
sasg11
I16
sg12
I11410241
sg13
I0
sa(dp451
g5
(lp452
(dp453
g8
S'for (int i = 1; i < 10; i += 2) {\n    for (int j = 0; j < i; j++) {\n        System.out.print("*");\n    }\n    System.out.println("");\n}'
p454
sg10
I01
sa(dp455
g8
S'for (int i = 1; i < 10; i += 2) {\n    for (int k = 0; k < (4 - i / 2); k++) {\n        System.out.print(" ");\n    }\n    for (int j = 0; j < i; j++) {\n        System.out.print("*");\n    }\n    System.out.println("");\n}'
p456
sg10
I01
sasg11
I12
sg12
I11409778
sg13
I1
sa(dp457
g5
(lp458
(dp459
g8
S'public void printTriangleLine(int rowNumber) {\n}'
p460
sg10
I01
sa(dp461
g8
S'public void printTriangleLine(int rowNumber) {\n    printSequence(" ", 5 - rowNumber);\n    printSequence("*", 2 * rowNumber + 1);\n    System.out.println();\n}'
p462
sg10
I01
sa(dp463
g8
S'public void printSequence(String s, int repeats) {\n    for (int i = 0; i < repeats; i++) {\n        System.out.print(s);\n    }\n}'
p464
sg10
I01
sa(dp465
g8
S'public static void main(String[] args) {\n    printSequence("a", 3);\n    System.out.println();\n    printTriangleLine(2);\n}'
p466
sg10
I01
sa(dp467
g8
Vaaa\u000a   *****\u000a
p468
sg10
I00
sa(dp469
g8
VassertEquals("   *****", TriangleDrawer.triangleLine(2));\u000aassertEquals("     *", TriangleDrawer.triangleLine(0))\u000a
p470
sg10
I00
sa(dp471
g8
S'public void drawTriangle() {\n    for (int i = 0; i < 5; i++) {\n        printTriangleLine(i);\n    }\n}'
p472
sg10
I01
sasg11
I3
sg12
I12055109
sg13
I2
sasg22
VCreating a triangle with for loops
p473
ssI3395286
(dp474
g2
(lp475
(dp476
g5
(lp477
(dp478
g8
S'String prefix = "";\nfor (String serverId : serverIds) {\n    sb.append(prefix);\n    prefix = ",";\n    sb.append(serverId);\n}'
p479
sg10
I01
sasg11
I430
sg12
I3395345
sg13
I0
sa(dp480
g5
(lp481
(dp482
g8
S'sb.setLength(sb.length() - 1);'
p483
sg10
I01
sa(dp484
g8
S'if (sb.length() > 0) {\n    sb.setLength(sb.length() - 1);\n}'
p485
sg10
I01
sa(dp486
g8
S'sb.setLength(Math.max(sb.length() - 1, 0));'
p487
sg10
I01
sasg11
I251
sg12
I3395329
sg13
I1
sa(dp488
g5
(lp489
(dp490
g8
S'sb.deleteCharAt(sb.length() - 1);'
p491
sg10
I01
sasg11
I101
sg12
I3395299
sg13
I2
sasg22
VRemove last character of a StringBuilder?
p492
ssI7833689
(dp493
g2
(lp494
(dp495
g5
(lp496
(dp497
g8
S'System.out.println("I\\nam\\na\\nboy");\nSystem.out.println("I am a boy".replaceAll("\\\\s+", "\\n"));\nSystem.out.println("I am a boy".replaceAll("\\\\s+", System.getProperty("line.separator")));'
p498
sg10
I01
sasg11
I97
sg12
I7833713
sg13
I0
sa(dp499
g5
(lp500
(dp501
g8
S'String x = "Hello," + System.lineSeparator() + "there";'
p502
sg10
I01
sasg11
I55
sg12
I31599937
sg13
I1
sa(dp503
g5
(lp504
(dp505
g8
S'System.out.println("I\\nam\\na\\nboy");'
p506
sg10
I01
sasg11
I12
sg12
I7833702
sg13
I2
sasg22
VJava String new line
p507
ssI16027229
(dp508
g2
(lp509
(dp510
g5
(lp511
(dp512
g8
S'import java.io.BufferedReader;\nimport java.io.FileReader;\nimport java.io.IOException;'
p513
sg10
I01
sa(dp514
g8
S'String readFile(String fileName) throws IOException {\n    BufferedReader br = new BufferedReader(new FileReader(fileName));\n    try {\n        StringBuilder sb = new StringBuilder();\n        String line = br.readLine();\n        while (line != null) {\n            sb.append(line);\n            sb.append("\\n");\n            line = br.readLine();\n        }\n        return sb.toString();\n    } finally {\n        br.close();\n    }\n}'
p515
sg10
I01
sasg11
I50
sg12
I16027293
sg13
I0
sa(dp516
g5
(lp517
sg11
I1
sg12
I16034306
sg13
I1
sasg22
VReading from a text file and storing in a String
p518
ssI2891361
(dp519
g2
(lp520
(dp521
g5
(lp522
(dp523
g8
S'SimpleDateFormat isoFormat = new SimpleDateFormat("yyyy-MM-dd\'T\'HH:mm:ss");\nisoFormat.setTimeZone(TimeZone.getTimeZone("UTC"));\nDate date = isoFormat.parse("2010-05-23T09:01:02");'
p524
sg10
I01
sasg11
I197
sg12
I2891412
sg13
I0
sa(dp525
g5
(lp526
sg11
I113
sg12
I2892156
sg13
I1
sa(dp527
g5
(lp528
(dp529
g8
S'Date date1 = new Date();\nSystem.out.println(date1);\nTimeZone.setDefault(TimeZone.getTimeZone("UTC"));\nDate date2 = new Date();\nSystem.out.println(date2);'
p530
sg10
I01
sa(dp531
g8
VThu Sep 05 10:11:12 EDT 2013\u000aThu Sep 05 14:11:12 UTC 2013\u000a
p532
sg10
I00
sasg11
I46
sg12
I18638742
sg13
I2
sasg22
VHow to set time zone of a java.util.Date?
p533
ssI1391970
(dp534
g2
(lp535
(dp536
g5
(lp537
(dp538
g8
VCharSequence cs = "string";\u000aString s = cs.toString();\u000afoo(s); // prints "string"\u000a\u000apublic void foo(CharSequence cs) { \u000a  System.out.println(cs);\u000a}\u000a
p539
sg10
I00
sasg11
I214
sg12
I1391976
sg13
I0
sa(dp540
g5
(lp541
(dp542
g8
S'String s = "Hello World!";\nCharSequence cs = s;'
p543
sg10
I01
sasg11
I28
sg12
I25161321
sg13
I1
sa(dp544
g5
(lp545
sg11
I8
sg12
I35050419
sg13
I2
sasg22
VHow to convert a String to CharSequence?
p546
ssI2310139
(dp547
g2
(lp548
(dp549
g5
(lp550
(dp551
g8
S'XMLReader myReader = XMLReaderFactory.createXMLReader();\nmyReader.setContentHandler(handler);\nmyReader.parse(new InputSource(new URL(url).openStream()));\nDocumentBuilderFactory dbf = DocumentBuilderFactory.newInstance();\nDocumentBuilder db = dbf.newDocumentBuilder();\nDocument doc = db.parse(new URL(url).openStream());'
p552
sg10
I01
sasg11
I67
sg12
I2325128
sg13
I0
sa(dp553
g5
(lp554
(dp555
g8
S'URL url = new URL(urlString);\nURLConnection conn = url.openConnection();\nDocumentBuilderFactory factory = DocumentBuilderFactory.newInstance();\nDocumentBuilder builder = factory.newDocumentBuilder();\nDocument doc = builder.parse(conn.getInputStream());\nTransformerFactory factory = TransformerFactory.newInstance();\nTransformer xform = factory.newTransformer();\nxform.transform(new DOMSource(doc), new StreamResult(System.out));'
p556
sg10
I01
sasg11
I8
sg12
I2632593
sg13
I1
sa(dp557
g5
(lp558
sg11
I5
sg12
I2310219
sg13
I2
sasg22
VHow to read XML response from a URL in java?
p559
ssI7522022
(dp560
g2
(lp561
(dp562
g5
(lp563
(dp564
g8
S'System.out.print("hello");\nThread.sleep(1000);\nSystem.out.print("\\b\\b\\b\\b\\b");\nSystem.out.print("world");'
p565
sg10
I01
sasg11
I44
sg12
I7522190
sg13
I0
sa(dp566
g5
(lp567
(dp568
g8
S'Runtime.getRuntime().exec("cls");'
p569
sg10
I01
sa(dp570
g8
S'System.setOut(new PrintStream(new OutputStream() {\n\n    @Override\n    public void write(int b) throws IOException {\n    }\n}));'
p571
sg10
I01
sasg11
I21
sg12
I7522075
sg13
I1
sa(dp572
g5
(lp573
(dp574
g8
S'int count = 1;\nSystem.out.print(String.format("\\033[%dA", count));\nSystem.out.print("\\033[2K");'
p575
sg10
I01
sa(dp576
g8
S'System.out.print(String.format("\\033[2J"));'
p577
sg10
I01
sasg11
I11
sg12
I22083329
sg13
I2
sasg22
VHow to delete stuff printed to console by System.out.println()?
p578
ssI473446
(dp579
g2
(lp580
(dp581
g5
(lp582
(dp583
g8
S'System.getProperty("user.name");'
p584
sg10
I01
sa(dp585
g8
S'java.net.InetAddress localMachine = java.net.InetAddress.getLocalHost();\nSystem.out.println("Hostname of local machine: " + localMachine.getHostName());'
p586
sg10
I01
sasg11
I200
sg12
I473470
sg13
I0
sa(dp587
g5
(lp588
(dp589
g8
S'System.getProperty("user.name");'
p590
sg10
I01
sa(dp591
g8
S'InetAddress.getLocalHost().getHostName();'
p592
sg10
I01
sasg11
I75
sg12
I473544
sg13
I1
sa(dp593
g5
(lp594
sg11
I10
sg12
I12565525
sg13
I2
sasg22
VJava current machine name and logged in user?
p595
ssI3806062
(dp596
g2
(lp597
(dp598
g5
(lp599
(dp600
g8
S'List<Integer> list = new ArrayList<Integer>();\nFile file = new File("file.txt");\nBufferedReader reader = null;\ntry {\n    reader = new BufferedReader(new FileReader(file));\n    String text = null;\n    while ((text = reader.readLine()) != null) {\n        list.add(Integer.parseInt(text));\n    }\n} catch (FileNotFoundException e) {\n    e.printStackTrace();\n} catch (IOException e) {\n    e.printStackTrace();\n} finally {\n    try {\n        if (reader != null) {\n            reader.close();\n        }\n    } catch (IOException e) {\n    }\n}\nSystem.out.println(list);'
p601
sg10
I01
sasg11
I42
sg12
I3806154
sg13
I0
sa(dp602
g5
(lp603
(dp604
g8
S'Path filePath = Paths.get("file.txt");\nScanner scanner = new Scanner(filePath);\nList<Integer> integers = new ArrayList<>();\nwhile (scanner.hasNext()) {\n    if (scanner.hasNextInt()) {\n        integers.add(scanner.nextInt());\n    } else {\n        scanner.next();\n    }\n}'
p605
sg10
I01
sasg11
I9
sg12
I24388473
sg13
I1
sa(dp606
g5
(lp607
(dp608
g8
S'try {\n    BufferedReader br = new BufferedReader(new FileReader("textfile.txt"));\n    String strLine;\n    while ((strLine = br.readLine()) != null) {\n        System.out.println(strLine);\n    }\n    in.close();\n} catch (Exception e) {\n    System.err.println("Error: " + e.getMessage());\n} finally {\n    in.close();\n}'
p609
sg10
I01
sa(dp610
g8
S'System.out.println(strLine);'
p611
sg10
I01
sa(dp612
g8
S'try {\n    int i = Integer.parseInt(strLine);\n} catch (NumberFormatException npe) {\n}'
p613
sg10
I01
sa(dp614
g8
S'try {\n    String[] noInStringArr = strLine.split(" ");\n} catch (NumberFormatException npe) {\n}'
p615
sg10
I01
sasg11
I3
sg12
I3806123
sg13
I2
sasg22
VHow to open a txt file and read numbers in java
p616
ssI4377842
(dp617
g2
(lp618
(dp619
g5
(lp620
(dp621
g8
S'float z = (float) x / y;'
p622
sg10
I01
sa(dp623
g8
S'float z = x / (float) y;'
p624
sg10
I01
sa(dp625
g8
S'float z = (float) x / (float) y;'
p626
sg10
I01
sasg11
I94
sg12
I4377856
sg13
I0
sa(dp627
g5
(lp628
(dp629
g8
S'int x = 1111111111;\nint y = 10000;\nfloat f = (float) x / y;\ndouble d = (double) x / y;\nSystem.out.println("f= " + f);\nSystem.out.println("d= " + d);'
p630
sg10
I01
sa(dp631
g8
Vf= 111111.12\u000ad= 111111.1111\u000a
p632
sg10
I00
sasg11
I5
sg12
I4378579
sg13
I1
sa(dp633
g5
(lp634
(dp635
g8
S'float z = x * 1.0 / y;'
p636
sg10
I01
sasg11
I4
sg12
I10359504
sg13
I2
sasg22
VHow can I convert integer into float in Java?
p637
ssI3605237
(dp638
g2
(lp639
(dp640
g5
(lp641
(dp642
g8
S'Map<String, String> reversedMap = new TreeMap<String, String>(codes);\nfor (Map.Entry entry : reversedMap.entrySet()) {\n    System.out.println(entry.getKey() + ", " + entry.getValue());\n}'
p643
sg10
I01
sasg11
I30
sg12
I3605320
sg13
I0
sa(dp644
g5
(lp645
(dp646
g8
S'Map<String, String> map = getMyMap();\nList<String> keys = new ArrayList<String>(map.keySet());\nCollections.sort(keys, someComparator);\nfor (String key : keys) {\n    System.out.println(key + ": " + map.get(key));\n}'
p647
sg10
I01
sa(dp648
g8
S'public static <K, V extends Comparable<? super V>> Comparator<K> mapValueComparator(final Map<K, V> map) {\n    return new Comparator<K>() {\n\n        public int compare(K key1, K key2) {\n            return map.get(key1).compareTo(map.get(key2));\n        }\n    };\n}\npublic static <K, V> Comparator<K> mapValueComparator(final Map<K, V> map, final Comparator<V> comparator) {\n    return new Comparator<K>() {\n\n        public int compare(K key1, K key2) {\n            return comparator.compare(map.get(key1), map.get(key2));\n        }\n    };\n}'
p649
sg10
I01
sasg11
I11
sg12
I3605363
sg13
I1
sa(dp650
g5
(lp651
(dp652
g8
S'Iterator<Map.Entry<String, String>> i = codes.entrySet().iterator();\nwhile (i.hasNext()) {\n    String key = i.next().getKey();\n    System.out.println(key + ", " + codes.get(key));\n}'
p653
sg10
I01
sasg11
I5
sg12
I13467920
sg13
I2
sasg22
VHow print out the contents of a HashMap<String, String> in ascending order based on its values?
p654
ssI112503
(dp655
g2
(lp656
(dp657
g5
(lp658
(dp659
g8
S'List<String> list = new ArrayList<String>(Arrays.asList(array));\nlist.removeAll(Arrays.asList("a"));\narray = list.toArray(array);'
p660
sg10
I01
sa(dp661
g8
S'array = list.toArray(new String[0]);'
p662
sg10
I01
sa(dp663
g8
S'private static final String[] EMPTY_STRING_ARRAY = new String[0];'
p664
sg10
I01
sa(dp665
g8
S'List<String> list = new ArrayList<>();\nCollections.addAll(list, array);\nlist.removeAll(Arrays.asList("a"));\narray = list.toArray(EMPTY_STRING_ARRAY);'
p666
sg10
I01
sa(dp667
g8
S'array = list.toArray(new String[list.size()]);'
p668
sg10
I01
sasg11
I90
sg12
I112542
sg13
I0
sa(dp669
g5
(lp670
sg11
I20
sg12
I112507
sg13
I1
sa(dp671
g5
(lp672
(dp673
g8
S'String[] filteredArray = Arrays.stream(array).filter(e -> !e.equals(foo)).toArray(String[]::new);'
p674
sg10
I01
sasg11
I17
sg12
I23188826
sg13
I2
sasg22
VHow do I remove objects from an array in Java?
p675
ssI1519736
(dp676
g2
(lp677
(dp678
g5
(lp679
(dp680
g8
S'import java.util.*;\nimport java.util.concurrent.ThreadLocalRandom;\n\nclass Test {\n\n    public static void main(String[] args) {\n        int[] solutionArray = { 1, 2, 3, 4, 5, 6, 16, 15, 14, 13, 12, 11 };\n        shuffleArray(solutionArray);\n        for (int i = 0; i < solutionArray.length; i++) {\n            System.out.print(solutionArray[i] + " ");\n        }\n        System.out.println();\n    }\n\n    static void shuffleArray(int[] ar) {\n        Random rnd = ThreadLocalRandom.current();\n        for (int i = ar.length - 1; i > 0; i--) {\n            int index = rnd.nextInt(i + 1);\n            int a = ar[index];\n            ar[index] = ar[i];\n            ar[i] = a;\n        }\n    }\n}'
p681
sg10
I01
sasg11
I203
sg12
I1520212
sg13
I0
sa(dp682
g5
(lp683
(dp684
g8
S'List<Integer> solution = new ArrayList<>();\nfor (int i = 1; i <= 6; i++) {\n    solution.add(i);\n}\nCollections.shuffle(solution);'
p685
sg10
I01
sasg11
I100
sg12
I3732080
sg13
I1
sa(dp686
g5
(lp687
(dp688
g8
S'private static void shuffleArray(int[] array) {\n    int index;\n    Random random = new Random();\n    for (int i = array.length - 1; i > 0; i--) {\n        index = random.nextInt(i + 1);\n        if (index != i) {\n            array[index] ^= array[i];\n            array[i] ^= array[index];\n            array[index] ^= array[i];\n        }\n    }\n}'
p689
sg10
I01
sa(dp690
g8
S'private static void shuffleArray(int[] array) {\n    int index, temp;\n    Random random = new Random();\n    for (int i = array.length - 1; i > 0; i--) {\n        index = random.nextInt(i + 1);\n        temp = array[index];\n        array[index] = array[i];\n        array[i] = temp;\n    }\n}'
p691
sg10
I01
sasg11
I71
sg12
I18456998
sg13
I2
sasg22
VRandom shuffling of an array
p692
ssI867194
(dp693
g2
(lp694
(dp695
g5
(lp696
(dp697
g8
S'if (!resultSet.isBeforeFirst()) {\n    System.out.println("No data");\n}'
p698
sg10
I01
sasg11
I398
sg12
I6813771
sg13
I0
sa(dp699
g5
(lp700
sg11
I161
sg12
I867206
sg13
I1
sa(dp701
g5
(lp702
(dp703
g8
S'if (!resultSet.next()) {\n    System.out.println("no data");\n} else {\n    do {\n    } while (resultSet.next());\n}'
p704
sg10
I01
sasg11
I37
sg12
I930757
sg13
I2
sasg22
VJava ResultSet how to check if there are any results
p705
ssI13386107
(dp706
g2
(lp707
(dp708
g5
(lp709
(dp710
g8
S'StringBuilder sb = new StringBuilder(inputString);'
p711
sg10
I01
sa(dp712
g8
S'String resultString = sb.toString();'
p713
sg10
I01
sasg11
I124
sg12
I13386289
sg13
I0
sa(dp714
g5
(lp715
(dp716
g8
S'String result = str.substring(0, index) + str.substring(index + 1);'
p717
sg10
I01
sasg11
I43
sg12
I13386147
sg13
I1
sa(dp718
g5
(lp719
(dp720
g8
S'String a = "Cool";\na = a.replace("o", "");'
p721
sg10
I01
sasg11
I23
sg12
I20665193
sg13
I2
sasg22
VHow to remove single character from a String
p722
ssI454908
(dp723
g2
(lp724
(dp725
g5
(lp726
(dp727
g8
S'String[] lines = string.split("\\\\r?\\\\n");'
p728
sg10
I01
sasg11
I513
sg12
I454913
sg13
I0
sa(dp729
g5
(lp730
(dp731
g8
S'String.split("[\\\\r\\\\n]+");'
p732
sg10
I01
sasg11
I91
sg12
I454919
sg13
I1
sa(dp733
g5
(lp734
sg11
I51
sg12
I31060125
sg13
I2
sasg22
VSplit Java String by New Line
p735
ssI12678781
(dp736
g2
(lp737
(dp738
g5
(lp739
(dp740
g8
S'List<Integer> list = Arrays.asList(1, 4, 9, 16, 9, 7, 4, 9, 11);\nSystem.out.println(list);\nCollections.reverse(list);\nSystem.out.println(list);'
p741
sg10
I01
sa(dp742
g8
V[1, 4, 9, 16, 9, 7, 4, 9, 11]\u000a[11, 9, 4, 7, 9, 16, 9, 4, 1]\u000a
p743
sg10
I00
sasg11
I61
sg12
I12678806
sg13
I0
sa(dp744
g5
(lp745
(dp746
g8
S'Collections.reverse(Arrays.asList(array));'
p747
sg10
I01
sasg11
I49
sg12
I12678867
sg13
I1
sa(dp748
g5
(lp749
(dp750
g8
S'for (i = 0; i < array.length / 2; i++) {\n    int temp = array[i];\n    array[i] = array[array.length - 1 - i];\n    array[array.length - 1 - i] = temp;\n}'
p751
sg10
I01
sasg11
I25
sg12
I12678906
sg13
I2
sasg22
VReversing an Array in Java
p752
ss.