(dp0
I10796160
(dp1
S'accepted_answer_post_id'
p2
I10796174
sS'answer_posts'
p3
(lp4
(dp5
S'snippets'
p6
(lp7
(dp8
S'code'
p9
S'test.split("\\\\|");'
p10
sS'is_normalized'
p11
I01
sa(dp12
g9
S'test.split(Pattern.quote("|"));'
p13
sg11
I01
sasS'score'
p14
I272
sS'id'
p15
I10796174
sS'rank'
p16
I0
sa(dp17
g6
(lp18
(dp19
g9
S'string.split(Pattern.quote("|"));'
p20
sg11
I01
sasg14
I20
sg15
I21025279
sg16
I1
sa(dp21
g6
(lp22
(dp23
g9
S'public static void main(String[] args) {\n    String test = "A|B|C||D";\n    String[] result = test.split("\\\\|");\n    for (String s : result) {\n        System.out.println(">" + s + "<");\n    }\n}'
p24
sg11
I01
sasg14
I2
sg15
I39266797
sg16
I2
sasS'title'
p25
VSplitting a Java String by the pipe symbol using split("|")
p26
ssI18915075
(dp27
g2
Nsg3
(lp28
(dp29
g6
(lp30
(dp31
g9
Vtry{\u000a    SimpleDateFormat dateFormat = new SimpleDateFormat("yyyy-MM-dd hh:mm:ss.SSS");\u000a    Date parsedDate = dateFormat.parse(yourString);\u000a    Timestamp timestamp = new java.sql.Timestamp(parsedDate.getTime());\u000a}catch(Exception e){//this generic but you can control another types of exception\u000a look the origin of excption \u000a}\u000a
p32
sg11
I00
sasg14
I46
sg15
I18915260
sg16
I0
sa(dp33
g6
(lp34
(dp35
g9
S'import java.sql.Timestamp;\nimport java.text.DateFormat;\nimport java.text.ParseException;\nimport java.text.SimpleDateFormat;\nimport java.util.Date;\n\npublic class Util {\n\n    public static Timestamp convertStringToTimestamp(String str_date) {\n        try {\n            DateFormat formatter;\n            formatter = new SimpleDateFormat("dd/MM/yyyy");\n            Date date = formatter.parse(str_date);\n            java.sql.Timestamp timeStampDate = new Timestamp(date.getTime());\n            return timeStampDate;\n        } catch (ParseException e) {\n            System.out.println("Exception :" + e);\n            return null;\n        }\n    }\n}'
p36
sg11
I01
sasg14
I8
sg15
I30341685
sg16
I1
sa(dp37
g6
(lp38
(dp39
g9
S'Date date = new Date();\nTimestamp timestamp = new Timestamp(date.getTime());\nTimestamp myTimeStamp = timestamp;'
p40
sg11
I01
sasg14
I2
sg15
I18915163
sg16
I2
sasg25
VJava: Convert String to TimeStamp
p41
ssI88838
(dp42
g2
I88863
sg3
(lp43
(dp44
g6
(lp45
(dp46
g9
S'String s = "some text here";\nbyte[] b = s.getBytes("UTF-8");'
p47
sg11
I01
sa(dp48
g9
S'byte[] b = { (byte) 99, (byte) 97, (byte) 116 };\nString s = new String(b, "US-ASCII");'
p49
sg11
I01
sasg14
I234
sg15
I88863
sg16
I0
sa(dp50
g6
(lp51
(dp52
g9
Vimport java.nio.charset.Charset;\u000a\u000aprivate final Charset UTF8_CHARSET = Charset.forName("UTF-8");\u000a\u000aString decodeUTF8(byte[] bytes) {\u000a    return new String(bytes, UTF8_CHARSET);\u000a}\u000a\u000abyte[] encodeUTF8(String string) {\u000a    return string.getBytes(UTF8_CHARSET);\u000a}\u000a
p53
sg11
I00
sasg14
I71
sg15
I3386646
sg16
I1
sa(dp54
g6
(lp55
sg14
I14
sg15
I91774
sg16
I2
sasg25
VHow to convert Strings to and from UTF8 byte arrays in Java
p56
ssI1509391
(dp57
g2
I1509487
sg3
(lp58
(dp59
g6
(lp60
(dp61
g9
VMap<String, String> map = ...;  // wherever you get this from\u000a\u000a// Get the first entry that the iterator returns\u000aMap.Entry<String, String> entry = map.entrySet().iterator().next();\u000a
p62
sg11
I00
sa(dp63
g9
S'System.out.println("Key: " + entry.getKey() + ", Value: " + entry.getValue());'
p64
sg11
I01
sasg14
I195
sg15
I1509401
sg16
I0
sa(dp65
g6
(lp66
(dp67
g9
S'TreeMap<String, String> myMap = new TreeMap<String, String>();\nString first = myMap.firstEntry().getValue();\nString firstOther = myMap.get(myMap.firstKey());'
p68
sg11
I01
sasg14
I71
sg15
I1509487
sg16
I1
sa(dp69
g6
(lp70
(dp71
g9
S'return hashMapObject.entrySet().iterator().next();'
p72
sg11
I01
sa(dp73
g9
S'return new ArrayList(hashMapObject.entrySet()).get(0);'
p74
sg11
I01
sa(dp75
g9
S'return hashMapObject.entrySet().toArray()[0];'
p76
sg11
I01
sasg14
I24
sg15
I1509418
sg16
I2
sasg25
Vhow to get the one entry from hashmap without iterating
p77
ssI5283444
(dp78
g2
I5283753
sg3
(lp79
(dp80
g6
(lp81
(dp82
g9
S'String str = Arrays.toString(arr);'
p83
sg11
I01
sa(dp84
g9
S'StringBuilder builder = new StringBuilder();\nfor (String s : arr) {\n    builder.append(s);\n}\nString str = builder.toString();'
p85
sg11
I01
sa(dp86
g9
S'String str = String.join(",", arr);'
p87
sg11
I01
sasg14
I247
sg15
I5283753
sg16
I0
sa(dp88
g6
(lp89
(dp90
g9
S'String joinedString = StringUtils.join(new Object[] { "a", "b", 1 }, "-");\nSystem.out.println(joinedString);'
p91
sg11
I01
sa(dp92
g9
Va-b-1\u000a
p93
sg11
I00
sasg14
I97
sg15
I5283468
sg16
I1
sa(dp94
g6
(lp95
(dp96
g9
S'Joiner.on(", ").skipNulls().join("Harry", null, "Ron", "Hermione");'
p97
sg11
I01
sa(dp98
g9
S'new String("Harry, Ron, Hermione");'
p99
sg11
I01
sa(dp100
g9
S'String.join(", ", "Harry", "Ron", "Hermione");'
p101
sg11
I01
sasg14
I32
sg15
I5283581
sg16
I2
sasg25
VConvert array of strings into a string in Java
p102
ssI7438612
(dp103
g2
I7438613
sg3
(lp104
(dp105
g6
(lp106
(dp107
g9
S"public String method(String str) {\n    if (str != null && str.length() > 0 && str.charAt(str.length() - 1) == 'x') {\n        str = str.substring(0, str.length() - 1);\n    }\n    return str;\n}"
p108
sg11
I01
sasg14
I400
sg15
I7438613
sg16
I0
sa(dp109
g6
(lp110
(dp111
g9
S'private static String removeLastChar(String str) {\n    return str.substring(0, str.length() - 1);\n}'
p112
sg11
I01
sa(dp113
g9
S'import java.util.*;\nimport java.lang.*;\n\npublic class Main {\n\n    public static void main(String[] args) throws java.lang.Exception {\n        String s1 = "Remove Last CharacterY";\n        String s2 = "Remove Last Character2";\n        System.out.println("After removing s1==" + removeLastChar(s1) + "==");\n        System.out.println("After removing s2==" + removeLastChar(s2) + "==");\n    }\n\n    private static String removeLastChar(String str) {\n        return str.substring(0, str.length() - 1);\n    }\n}'
p114
sg11
I01
sasg14
I131
sg15
I14001872
sg16
I1
sa(dp115
g6
(lp116
(dp117
g9
S'"aaabcd".replaceFirst(".$", "");'
p118
sg11
I01
sasg14
I43
sg15
I18460535
sg16
I2
sasg25
VHow to remove the last character from a string?
p119
ssI9102318
(dp120
g2
I9102330
sg3
(lp121
(dp122
g6
(lp123
(dp124
g9
S'Double d = 5.25;\nInteger i = d.intValue();'
p125
sg11
I01
sa(dp126
g9
S'double d = 5.25;\nint i = (int) d;'
p127
sg11
I01
sasg14
I379
sg15
I9102359
sg16
I0
sa(dp128
g6
(lp129
sg14
I321
sg15
I9102330
sg16
I1
sa(dp130
g6
(lp131
(dp132
g9
S'double d = 9.5;\nint i = (int) d;\nDouble D = 9.5;\nint i = Integer.valueOf(D.intValue());\ndouble d = 9.5;\nLong L = Math.round(d);\nint i = Integer.valueOf(L.intValue());'
p133
sg11
I01
sasg14
I30
sg15
I19998172
sg16
I2
sasg25
VCast Double to Integer in Java
p134
ssI2627992
(dp135
g2
I2628560
sg3
(lp136
(dp137
g6
(lp138
(dp139
g9
Vjava -Duser.timezone=GMT ... <main-class>\u000a
p140
sg11
I00
sa(dp141
g9
VCalendar tzCal = Calendar.getInstance(TimeZone.getTimeZone("GMT"));\u000aResultSet rs = ...;\u000awhile (rs.next()) {\u000a    Date dateValue = rs.getDate("DateColumn", tzCal);\u000a    // Other fields and calculations\u000a}\u000a
p142
sg11
I00
sa(dp143
g9
S'Calendar tzCal = Calendar.getInstance(TimeZone.getTimeZone("GMT"));\nPreparedStatement ps = conn.createPreparedStatement("update ...");\nps.setDate("DateColumn", dateValue, tzCal);\nps.executeUpdate();'
p144
sg11
I01
sa(dp145
g9
S'TimeZone tz = TimeZone.getTimeZone("<local-time-zone>");\nDate dateValue = rs.getDate("DateColumn");\nCalendar calValue = Calendar.getInstance(tz);\ncalValue.setTime(dateValue);'
p146
sg11
I01
sasg14
I82
sg15
I2628560
sg16
I0
sa(dp147
g6
(lp148
sg14
I9
sg15
I5053005
sg16
I1
sa(dp149
g6
(lp150
(dp151
g9
S'System.setProperty("user.timezone", "EST");'
p152
sg11
I01
sasg14
I9
sg15
I14858183
sg16
I2
sasg25
VForce Java timezone as GMT/UTC
p153
ssI2839321
(dp154
g2
I2839563
sg3
(lp155
(dp156
g6
(lp157
(dp158
g9
VCREATE DATABASE javabase DEFAULT CHARACTER SET utf8 COLLATE utf8_unicode_ci;\u000a
p159
sg11
I00
sa(dp160
g9
VCREATE USER 'java'@'localhost' IDENTIFIED BY 'password';\u000aGRANT ALL ON javabase.* TO 'java'@'localhost' IDENTIFIED BY 'password';\u000a
p161
sg11
I00
sa(dp162
g9
S'String url = "jdbc:mysql://localhost:3306/javabase";\nString username = "java";\nString password = "password";\nSystem.out.println("Connecting database...");\ntry (Connection connection = DriverManager.getConnection(url, username, password)) {\n    System.out.println("Database connected!");\n} catch (SQLException e) {\n    throw new IllegalStateException("Cannot connect the database!", e);\n}'
p163
sg11
I01
sa(dp164
g9
S'System.out.println("Loading driver...");\ntry {\n    Class.forName("com.mysql.jdbc.Driver");\n    System.out.println("Driver loaded!");\n} catch (ClassNotFoundException e) {\n    throw new IllegalStateException("Cannot find the driver in the classpath!", e);\n}'
p165
sg11
I01
sasg14
I338
sg15
I2840358
sg16
I0
sa(dp166
g6
(lp167
(dp168
g9
S'Context context = new InitialContext();\nDataSource dataSource = (DataSource) context.lookup("java:comp/env/jdbc/myDB");'
p169
sg11
I01
sa(dp170
g9
S'MysqlDataSource dataSource = new MysqlDataSource();\ndataSource.setUser("scott");\ndataSource.setPassword("tiger");\ndataSource.setServerName("myDBHost.example.org");'
p171
sg11
I01
sa(dp172
g9
VConnection conn = dataSource.getConnection();\u000aStatement stmt = conn.createStatement();\u000aResultSet rs = stmt.executeQuery("SELECT ID FROM USERS");\u000a...\u000ars.close();\u000astmt.close();\u000aconn.close();\u000a
p173
sg11
I00
sasg14
I134
sg15
I2839563
sg16
I1
sa(dp174
g6
(lp175
(dp176
g9
S'private static final String DATABASE_DRIVER = "com.mysql.jdbc.Driver";\nprivate static final String DATABASE_URL = "jdbc:mysql://localhost:3306/database_name";\nprivate static final String USERNAME = "root";\nprivate static final String PASSWORD = "";\nprivate static final String MAX_POOL = "250";'
p177
sg11
I01
sa(dp178
g9
S'private Connection connection;\nprivate Properties properties;'
p179
sg11
I01
sa(dp180
g9
S'private Properties getProperties() {\n    if (properties == null) {\n        properties = new Properties();\n        properties.setProperty("user", USERNAME);\n        properties.setProperty("password", PASSWORD);\n        properties.setProperty("MaxPooledStatements", MAX_POOL);\n    }\n    return properties;\n}'
p181
sg11
I01
sa(dp182
g9
S'public Connection connect() {\n    if (connection == null) {\n        try {\n            Class.forName(DATABASE_DRIVER);\n            connection = DriverManager.getConnection(DATABASE_URL, getProperties());\n        } catch (ClassNotFoundException | SQLException e) {\n            e.printStackTrace();\n        }\n    }\n    return connection;\n}'
p183
sg11
I01
sa(dp184
g9
S'public void disconnect() {\n    if (connection != null) {\n        try {\n            connection.close();\n            connection = null;\n        } catch (SQLException e) {\n            e.printStackTrace();\n        }\n    }\n}'
p185
sg11
I01
sa(dp186
g9
S'import java.sql.Connection;\nimport java.sql.DriverManager;\nimport java.sql.SQLException;\nimport java.util.Properties;\n\npublic class MysqlConnect {\n\n    private static final String DATABASE_DRIVER = "com.mysql.jdbc.Driver";\n\n    private static final String DATABASE_URL = "jdbc:mysql://localhost:3306/database_name";\n\n    private static final String USERNAME = "root";\n\n    private static final String PASSWORD = "";\n\n    private static final String MAX_POOL = "250";\n\n    private Connection connection;\n\n    private Properties properties;\n\n    private Properties getProperties() {\n        if (properties == null) {\n            properties = new Properties();\n            properties.setProperty("user", USERNAME);\n            properties.setProperty("password", PASSWORD);\n            properties.setProperty("MaxPooledStatements", MAX_POOL);\n        }\n        return properties;\n    }\n\n    public Connection connect() {\n        if (connection == null) {\n            try {\n                Class.forName(DATABASE_DRIVER);\n                connection = DriverManager.getConnection(DATABASE_URL, getProperties());\n            } catch (ClassNotFoundException | SQLException e) {\n                e.printStackTrace();\n            }\n        }\n        return connection;\n    }\n\n    public void disconnect() {\n        if (connection != null) {\n            try {\n                connection.close();\n                connection = null;\n            } catch (SQLException e) {\n                e.printStackTrace();\n            }\n        }\n    }\n}'
p187
sg11
I01
sa(dp188
g9
S'MysqlConnect mysqlConnect = new MysqlConnect();'
p189
sg11
I01
sa(dp190
g9
VString sql = "SELECT * FROM `stackoverflow`";\u000atry {\u000a    PreparedStatement statement = mysqlConnect.connect().prepareStatement(sql);\u000a    ... go on ...\u000a    ... go on ...\u000a    ... DONE ....\u000a} catch (SQLException e) {\u000a    e.printStackTrace();\u000a} finally {\u000a    mysqlConnect.disconnect();\u000a}\u000a
p191
sg11
I00
sasg14
I18
sg15
I30826155
sg16
I2
sasg25
VConnect Java to a MySQL database
p192
ssI1448858
(dp193
g2
I1448866
sg3
(lp194
(dp195
g6
(lp196
sg14
I44
sg15
I24415186
sg16
I0
sa(dp197
g6
(lp198
(dp199
g9
S'System.out.println((char) 27 + "[31mThis text would show up red" + (char) 27 + "[0m");'
p200
sg11
I01
sasg14
I30
sg15
I25511009
sg16
I1
sa(dp201
g6
(lp202
sg14
I25
sg15
I1448866
sg16
I2
sasg25
VHow to color System.out.println output?
p203
ssI2369967
(dp204
g2
I2369983
sg3
(lp205
(dp206
g6
(lp207
(dp208
g9
S'int[] arr = null;\nif (arr == null) {\n    System.out.println("array is null");\n}'
p209
sg11
I01
sa(dp210
g9
S'arr = new int[0];\nif (arr.length == 0) {\n    System.out.println("array is empty");\n}'
p211
sg11
I01
sa(dp212
g9
S'Object[] arr = new Object[10];\nboolean empty = true;\nfor (int i = 0; i < arr.length; i++) {\n    if (arr[i] != null) {\n        empty = false;\n        break;\n    }\n}'
p213
sg11
I01
sa(dp214
g9
S'Object[] arr = new Object[10];\nboolean empty = true;\nfor (Object ob : arr) {\n    if (ob != null) {\n        empty = false;\n        break;\n    }\n}'
p215
sg11
I01
sasg14
I136
sg15
I2369983
sg16
I0
sa(dp216
g6
(lp217
sg14
I15
sg15
I32383778
sg16
I1
sa(dp218
g6
(lp219
(dp220
g9
Vint[] i = ...;\u000aif (i.length == 0) { } // no elements in the array\u000a
p221
sg11
I00
sa(dp222
g9
S'if (i == null || i.length == 0) {\n}'
p223
sg11
I01
sasg14
I14
sg15
I2369989
sg16
I2
sasg25
Vhow we check for null array in java
p224
ssI1892765
(dp225
g2
I1892778
sg3
(lp226
(dp227
g6
(lp228
sg14
I576
sg15
I1892778
sg16
I0
sa(dp229
g6
(lp230
(dp231
g9
S'private String capitalize(final String line) {\n    return Character.toUpperCase(line.charAt(0)) + line.substring(1);\n}'
p232
sg11
I01
sasg14
I200
sg15
I11149580
sg16
I1
sa(dp233
g6
(lp234
(dp235
g9
S"public static String capitalizeString(String string) {\n    char[] chars = string.toLowerCase().toCharArray();\n    boolean found = false;\n    for (int i = 0; i < chars.length; i++) {\n        if (!found && Character.isLetter(chars[i])) {\n            chars[i] = Character.toUpperCase(chars[i]);\n            found = true;\n        } else if (Character.isWhitespace(chars[i]) || chars[i] == '.' || chars[i] == '\\'') {\n            found = false;\n        }\n    }\n    return String.valueOf(chars);\n}"
p236
sg11
I01
sasg14
I55
sg15
I1892812
sg16
I2
sasg25
VHow to capitalize the first character of each word in a string
p237
ssI320542
(dp238
g2
I320595
sg3
(lp239
(dp240
g6
(lp241
(dp242
g9
S'return new File(MyClass.class.getProtectionDomain().getCodeSource().getLocation().toURI().getPath());'
p243
sg11
I01
sasg14
I401
sg15
I320595
sg16
I0
sa(dp244
g6
(lp245
(dp246
g9
S'String path = Test.class.getProtectionDomain().getCodeSource().getLocation().getPath();\nString decodedPath = URLDecoder.decode(path, "UTF-8");'
p247
sg11
I01
sasg14
I164
sg15
I6849255
sg16
I1
sa(dp248
g6
(lp249
(dp250
g9
S'public static URL getLocation(final Class<?> c) {\n    if (c == null)\n        return null;\n    try {\n        final URL codeSourceLocation = c.getProtectionDomain().getCodeSource().getLocation();\n        if (codeSourceLocation != null)\n            return codeSourceLocation;\n    } catch (final SecurityException e) {\n    } catch (final NullPointerException e) {\n    }\n    final URL classResource = c.getResource(c.getSimpleName() + ".class");\n    if (classResource == null)\n        return null;\n    final String url = classResource.toString();\n    final String suffix = c.getCanonicalName().replace(\'.\', \'/\') + ".class";\n    if (!url.endsWith(suffix))\n        return null;\n    final String base = url.substring(0, url.length() - suffix.length());\n    String path = base;\n    if (path.startsWith("jar:"))\n        path = path.substring(4, path.length() - 2);\n    try {\n        return new URL(path);\n    } catch (final MalformedURLException e) {\n        e.printStackTrace();\n        return null;\n    }\n}\npublic static File urlToFile(final URL url) {\n    return url == null ? null : urlToFile(url.toString());\n}\npublic static File urlToFile(final String url) {\n    String path = url;\n    if (path.startsWith("jar:")) {\n        final int index = path.indexOf("!/");\n        path = path.substring(4, index);\n    }\n    try {\n        if (PlatformUtils.isWindows() && path.matches("file:[A-Za-z]:.*")) {\n            path = "file:/" + path.substring(5);\n        }\n        return new File(new URL(path).toURI());\n    } catch (final MalformedURLException e) {\n    } catch (final URISyntaxException e) {\n    }\n    if (path.startsWith("file:")) {\n        path = path.substring(5);\n        return new File(path);\n    }\n    throw new IllegalArgumentException("Invalid URL: " + url);\n}'
p251
sg11
I01
sasg14
I120
sg15
I12733172
sg16
I2
sasg25
VHow to get the path of a running JAR file?
p252
ssI15039519
(dp253
g2
I15039537
sg3
(lp254
(dp255
g6
(lp256
(dp257
g9
S'ArrayList<String> mylist = new ArrayList<String>();\nmylist.add(mystring);'
p258
sg11
I01
sa(dp259
g9
S'String[] myarray = new String[numberofstrings];\nmyarray[23] = string24;'
p260
sg11
I01
sasg14
I63
sg15
I15039537
sg16
I0
sa(dp261
g6
(lp262
(dp263
g9
S'String[] str = new String[10];'
p264
sg11
I01
sa(dp265
g9
Vstr[0] = "value1"\u000astr[1] = "value2"\u000astr[2] = "value3"\u000astr[3] = "value4"\u000astr[4] = "value5"\u000astr[5] = "value6"\u000astr[6] = "value7"\u000astr[7] = "value8"\u000astr[8] = "value9"\u000astr[9] = "value10"\u000a
p266
sg11
I00
sa(dp267
g9
S'str.add("Value1");'
p268
sg11
I01
sa(dp269
g9
S'String s = str.get(0);'
p270
sg11
I01
sa(dp271
g9
S'int nCount = str.size();'
p272
sg11
I01
sasg14
I12
sg15
I15039970
sg16
I1
sa(dp273
g6
(lp274
sg14
I1
sg15
I15039581
sg16
I2
sasg25
VHow to dynamically add elements to String array?
p275
ssI922528
(dp276
g2
Nsg3
(lp277
(dp278
g6
(lp279
(dp280
g9
S'SortedSet<String> keys = new TreeSet<String>(map.keySet());\nfor (String key : keys) {\n    String value = map.get(key);\n}'
p281
sg11
I01
sa(dp282
g9
V// placed inline for the demonstration, but doesn't have to be an anonymous class\u000aComparator<Foo> comparator = new Comparator<Foo>() {\u000a  public int compare(Foo o1, Foo o2) {\u000a    ...\u000a  }\u000a}\u000aSortedSet<Foo> keys = new TreeSet<Foo>(comparator);\u000akeys.addAll(map.keySet());\u000a
p283
sg11
I00
sasg14
I456
sg15
I922533
sg16
I0
sa(dp284
g6
(lp285
(dp286
g9
S'List sortedKeys = new ArrayList(yourMap.keySet());\nCollections.sort(sortedKeys);'
p287
sg11
I01
sasg14
I99
sg15
I922624
sg16
I1
sa(dp288
g6
(lp289
(dp290
g9
S'Map<String, String> map = new HashMap<String, String>();\nMap<String, String> treeMap = new TreeMap<String, String>(map);\nfor (String str : treeMap.keySet()) {\n    System.out.println(str);\n}'
p291
sg11
I01
sasg14
I35
sg15
I8036079
sg16
I2
sasg25
Vhow to sort Map values by key in Java
p292
ssI3914404
(dp293
g2
I3914498
sg3
(lp294
(dp295
g6
(lp296
(dp297
g9
S'TimeZone tz = TimeZone.getTimeZone("UTC");\nDateFormat df = new SimpleDateFormat("yyyy-MM-dd\'T\'HH:mm\'Z\'");\ndf.setTimeZone(tz);\nString nowAsISO = df.format(new Date());'
p298
sg11
I01
sasg14
I185
sg15
I3914973
sg16
I0
sa(dp299
g6
(lp300
(dp301
g9
S'TimeZone tz = TimeZone.getTimeZone("UTC");\nDateFormat df = new SimpleDateFormat("yyyy-MM-dd\'T\'HH:mm\'Z\'");\ndf.setTimeZone(tz);\nString nowAsISO = df.format(new Date());'
p302
sg11
I01
sasg14
I165
sg15
I3914498
sg16
I1
sa(dp303
g6
(lp304
(dp305
g9
S'thisMoment = DateTimeFormatter.ofPattern("yyyy-MM-dd\'T\'HH:mmX").withZone(ZoneOffset.UTC).format(Instant.now());'
p306
sg11
I01
sa(dp307
g9
S'thisMoment = String.format("%tFT%<tRZ", Calendar.getInstance(TimeZone.getTimeZone("Z")));'
p308
sg11
I01
sasg14
I84
sg15
I3914546
sg16
I2
sasg25
VHow to get current moment in ISO 8601 format with date, hour, and minute?
p309
ssI8444710
(dp310
g2
I8444732
sg3
(lp311
(dp312
g6
(lp313
(dp314
g9
S'boolean isPalindrome(String s) {\n    int n = s.length();\n    for (int i = 0; i < (n / 2); ++i) {\n        if (s.charAt(i) != s.charAt(n - i - 1)) {\n            return false;\n        }\n    }\n    return true;\n}'
p315
sg11
I01
sasg14
I85
sg15
I8444800
sg16
I0
sa(dp316
g6
(lp317
(dp318
g9
S'if (s.equals(new StringBuilder(s).reverse().toString()))\n    ;'
p319
sg11
I01
sasg14
I22
sg15
I8444890
sg16
I1
sa(dp320
g6
(lp321
(dp322
g9
S'public class Palindrome {\n\n    public static boolean isPalindrome(String stringToTest) {\n        String workingCopy = removeJunk(stringToTest);\n        String reversedCopy = reverse(workingCopy);\n        return reversedCopy.equalsIgnoreCase(workingCopy);\n    }\n\n    protected static String removeJunk(String string) {\n        int i, len = string.length();\n        StringBuffer dest = new StringBuffer(len);\n        char c;\n        for (i = (len - 1); i >= 0; i--) {\n            c = string.charAt(i);\n            if (Character.isLetterOrDigit(c)) {\n                dest.append(c);\n            }\n        }\n        return dest.toString();\n    }\n\n    protected static String reverse(String string) {\n        StringBuffer sb = new StringBuffer(string);\n        return sb.reverse().toString();\n    }\n\n    public static void main(String[] args) {\n        String string = "Madam, I\'m Adam.";\n        System.out.println();\n        System.out.println("Testing whether the following " + "string is a palindrome:");\n        System.out.println("    " + string);\n        System.out.println();\n        if (isPalindrome(string)) {\n            System.out.println("It IS a palindrome!");\n        } else {\n            System.out.println("It is NOT a palindrome!");\n        }\n        System.out.println();\n    }\n}'
p323
sg11
I01
sasg14
I7
sg15
I8444758
sg16
I2
sasg25
VEasiest way to check if a string is palindrome
p324
ssI75175
(dp325
g2
Nsg3
(lp326
(dp327
g6
(lp328
(dp329
g9
S'private static class SomeContainer<E> {\n\n    E createContents(Class<E> clazz) {\n        return clazz.newInstance();\n    }\n}'
p330
sg11
I01
sasg14
I240
sg15
I75254
sg16
I0
sa(dp331
g6
(lp332
(dp333
g9
Vpublic abstract class Foo<E> {\u000a\u000a  public E instance;  \u000a\u000a  public Foo() throws Exception {\u000a    instance = ((Class)((ParameterizedType)this.getClass().\u000a       getGenericSuperclass()).getActualTypeArguments()[0]).newInstance();\u000a    ...\u000a  }\u000a\u000a}\u000a
p334
sg11
I00
sa(dp335
g9
S'assert (new Foo<Bar>() {\n}.instance instanceof Bar);'
p336
sg11
I01
sasg14
I104
sg15
I75345
sg16
I1
sa(dp337
g6
(lp338
(dp339
g9
S'interface Factory<E> {\n\n    E create();\n}\n\nclass SomeContainer<E> {\n\n    private final Factory<E> factory;\n\n    SomeContainer(Factory<E> factory) {\n        this.factory = factory;\n    }\n\n    E createContents() {\n        return factory.create();\n    }\n}'
p340
sg11
I01
sasg14
I77
sg15
I75528
sg16
I2
sasg25
VCreate instance of generic type in Java?
p341
ssI2536873
(dp342
g2
I2537024
sg3
(lp343
(dp344
g6
(lp345
(dp346
g9
S'JFrame frame = new JFrame("test");\nframe.setDefaultCloseOperation(WindowConstants.EXIT_ON_CLOSE);\nJPanel panel = new JPanel(new GridLayout(4, 4, 4, 4));\nfor (int i = 0; i < 16; i++) {\n    JButton btn = new JButton(String.valueOf(i));\n    btn.setPreferredSize(new Dimension(40, 40));\n    panel.add(btn);\n}\nframe.setContentPane(panel);\nframe.pack();\nframe.setVisible(true);'
p347
sg11
I01
sa(dp348
g9
S'JFrame frame = new JFrame("Colored Trails");\nframe.setDefaultCloseOperation(JFrame.EXIT_ON_CLOSE);\nJPanel mainPanel = new JPanel();\nmainPanel.setLayout(new BoxLayout(mainPanel, BoxLayout.Y_AXIS));\nJPanel firstPanel = new JPanel();\nfirstPanel.setLayout(new GridLayout(4, 4));\nfirstPanel.setMaximumSize(new Dimension(400, 400));\nJButton btn;\nfor (int i = 1; i <= 4; i++) {\n    for (int j = 1; j <= 4; j++) {\n        btn = new JButton();\n        btn.setPreferredSize(new Dimension(100, 100));\n        firstPanel.add(btn);\n    }\n}\nJPanel secondPanel = new JPanel();\nsecondPanel.setLayout(new GridLayout(5, 13));\nsecondPanel.setMaximumSize(new Dimension(520, 200));\nfor (int i = 1; i <= 5; i++) {\n    for (int j = 1; j <= 13; j++) {\n        btn = new JButton();\n        btn.setPreferredSize(new Dimension(40, 40));\n        secondPanel.add(btn);\n    }\n}\nmainPanel.add(firstPanel);\nmainPanel.add(secondPanel);\nframe.setContentPane(mainPanel);\nframe.setSize(520, 600);\nframe.setMinimumSize(new Dimension(520, 600));\nframe.setVisible(true);'
p349
sg11
I01
sasg14
I25
sg15
I2537024
sg16
I0
sa(dp350
g6
(lp351
(dp352
g9
S'import javax.swing.*;\nimport java.awt.*;\n\npublic class PanelModel {\n\n    public static void main(String[] args) {\n        JFrame frame = new JFrame("Colored Trails");\n        frame.setDefaultCloseOperation(JFrame.EXIT_ON_CLOSE);\n        JPanel mainPanel = new JPanel();\n        mainPanel.setLayout(new BoxLayout(mainPanel, BoxLayout.Y_AXIS));\n        JPanel firstPanel = new JPanel(new GridLayout(4, 4));\n        firstPanel.setPreferredSize(new Dimension(4 * 100, 4 * 100));\n        for (int i = 1; i <= 4; i++) {\n            for (int j = 1; j <= 4; j++) {\n                firstPanel.add(new JButton());\n            }\n        }\n        JPanel firstGluePanel = new JPanel(new BorderLayout());\n        firstGluePanel.add(firstPanel, BorderLayout.WEST);\n        firstGluePanel.add(Box.createHorizontalGlue(), BorderLayout.CENTER);\n        firstGluePanel.add(Box.createVerticalGlue(), BorderLayout.SOUTH);\n        JPanel secondPanel = new JPanel(new GridLayout(13, 5));\n        secondPanel.setPreferredSize(new Dimension(5 * 40, 13 * 40));\n        for (int i = 1; i <= 5; i++) {\n            for (int j = 1; j <= 13; j++) {\n                secondPanel.add(new JButton());\n            }\n        }\n        JPanel secondGluePanel = new JPanel(new BorderLayout());\n        secondGluePanel.add(secondPanel, BorderLayout.WEST);\n        secondGluePanel.add(Box.createHorizontalGlue(), BorderLayout.CENTER);\n        secondGluePanel.add(Box.createVerticalGlue(), BorderLayout.SOUTH);\n        mainPanel.add(firstGluePanel);\n        mainPanel.add(secondGluePanel);\n        frame.getContentPane().add(mainPanel);\n        frame.pack();\n        frame.setVisible(true);\n    }\n}'
p353
sg11
I01
sasg14
I4
sg15
I2536920
sg16
I1
sa(dp354
g6
(lp355
sg14
I2
sg15
I2537051
sg16
I2
sasg25
VHow can I set size of a button?
p356
ssI20363719
(dp357
g2
I20363874
sg3
(lp358
(dp359
g6
(lp360
(dp361
g9
S'Map<String, Choice> result = choices.stream().collect(Collectors.toMap(Choice::getName, Function.identity()));'
p362
sg11
I01
sasg14
I696
sg15
I20363874
sg16
I0
sa(dp363
g6
(lp364
(dp365
g9
S'Map<String, List<Choice>> result = choices.stream().collect(Collectors.groupingBy(Choice::getName));'
p366
sg11
I01
sasg14
I117
sg15
I25453317
sg16
I1
sa(dp367
g6
(lp368
(dp369
g9
S'Map<String, Choice> result = choices.stream().collect(Collectors.toMap(Choice::getName, c -> c));'
p370
sg11
I01
sasg14
I63
sg15
I28779227
sg16
I2
sasg25
VJava 8 List<V> into Map<K, V>
p371
ssI1946668
(dp372
g2
Nsg3
(lp373
(dp374
g6
(lp375
(dp376
g9
S'Collections.sort(unsortedList, new Comparator<Person>() {\n\n    @Override\n    public int compare(Person a, Person b) {\n        return b.getName().compareTo(a.getName());\n    }\n});'
p377
sg11
I01
sa(dp378
g9
S'Collections.sort(unsortedList, new Comparator<Person>() {\n\n    @Override\n    public int compare(Person a, Person b) {\n        return a.getName().compareTo(b.getName());\n    }\n});'
p379
sg11
I01
sa(dp380
g9
S'Collections.sort(personList, (Person a, Person b) -> b.getName().compareTo(a.getName()));'
p381
sg11
I01
sa(dp382
g9
S'personList.sort((a, b) -> b.getName().compareTo(a.getName()));'
p383
sg11
I01
sasg14
I68
sg15
I18206740
sg16
I0
sa(dp384
g6
(lp385
(dp386
g9
S'import java.util.*;\n\npublic class Person implements Comparable<Person> {\n\n    String name;\n\n    int age;\n\n    public Person(String name, int age) {\n        this.name = name;\n        this.age = age;\n    }\n\n    public String getName() {\n        return name;\n    }\n\n    public int getAge() {\n        return age;\n    }\n\n    public String toString() {\n        return name + " : " + age;\n    }\n\n    public int compareTo(Person p) {\n        return getName().compareTo(p.getName());\n    }\n\n    static class AgeComparator implements Comparator<Person> {\n\n        public int compare(Person p1, Person p2) {\n            int age1 = p1.getAge();\n            int age2 = p2.getAge();\n            if (age1 == age2)\n                return 0;\n            else if (age1 > age2)\n                return 1;\n            else\n                return -1;\n        }\n    }\n\n    public static void main(String[] args) {\n        List<Person> people = new ArrayList<Person>();\n        people.add(new Person("Homer", 38));\n        people.add(new Person("Marge", 35));\n        people.add(new Person("Bart", 15));\n        people.add(new Person("Lisa", 13));\n        Collections.sort(people);\n        System.out.println("Sort by Natural order");\n        System.out.println("\\t" + people);\n        Collections.sort(people, Collections.reverseOrder());\n        System.out.println("Sort by reverse natural order");\n        System.out.println("\\t" + people);\n        Collections.sort(people, new Person.AgeComparator());\n        System.out.println("Sort using Age Comparator");\n        System.out.println("\\t" + people);\n        Collections.sort(people, Collections.reverseOrder(new Person.AgeComparator()));\n        System.out.println("Sort using Reverse Age Comparator");\n        System.out.println("\\t" + people);\n    }\n}'
p387
sg11
I01
sasg14
I54
sg15
I1947527
sg16
I1
sa(dp388
g6
(lp389
(dp390
g9
VString[] s = {"a", "x", "y"};\u000aArrays.sort(s, new Comparator<String>() {\u000a\u000a    @Override\u000a    public int compare(String o1, String o2) {\u000a        return o2.compareTo(o1);\u000a    }\u000a});\u000aSystem.out.println(Arrays.toString(s));\u000a\u000a-> [y, x, a]\u000a
p391
sg11
I00
sasg14
I14
sg15
I1946723
sg16
I2
sasg25
VSorting using Comparator- Descending order (User defined classes)
p392
ssI4340653
(dp393
g2
I4342095
sg3
(lp394
(dp395
g6
(lp396
(dp397
g9
S'ServletContext context = getContext();\nString fullPath = context.getRealPath("/WEB-INF/test/foo.txt");'
p398
sg11
I01
sa(dp399
g9
S'ServletContext context = getContext();\nURL resourceUrl = context.getResource("/WEB-INF/test/foo.txt");'
p400
sg11
I01
sa(dp401
g9
S'InputStream resourceContent = context.getResourceAsStream("/WEB-INF/test/foo.txt");'
p402
sg11
I01
sasg14
I117
sg15
I4342095
sg16
I0
sa(dp403
g6
(lp404
(dp405
g9
S'InputStream resource = getServletContext().getResourceAsStream("/WEB-INF/my.json");'
p406
sg11
I01
sasg14
I0
sg15
I45041917
sg16
I1
sasg25
VFile path to resource in our war/WEB-INF folder?
p407
ssI332079
(dp408
g2
I332101
sg3
(lp409
(dp410
g6
(lp411
(dp412
g9
S'String hexString = new String(Hex.encodeHex(messageDigest));'
p413
sg11
I01
sasg14
I116
sg15
I332433
sg16
I0
sa(dp414
g6
(lp415
(dp416
g9
S'public static String toHex(byte[] bytes) {\n    BigInteger bi = new BigInteger(1, bytes);\n    return String.format("%0" + (bytes.length << 1) + "X", bi);\n}'
p417
sg11
I01
sasg14
I95
sg15
I943963
sg16
I1
sa(dp418
g6
(lp419
(dp420
g9
S"public static String toHexString(byte[] bytes) {\n    StringBuilder hexString = new StringBuilder();\n    for (int i = 0; i < bytes.length; i++) {\n        String hex = Integer.toHexString(0xFF & bytes[i]);\n        if (hex.length() == 1) {\n            hexString.append('0');\n        }\n        hexString.append(hex);\n    }\n    return hexString.toString();\n}"
p421
sg11
I01
sasg14
I78
sg15
I332101
sg16
I2
sasg25
VIn Java, how do I convert a byte array to a string of hex digits while keeping leading zeros?
p422
ssI1816673
(dp423
g2
I1816676
sg3
(lp424
(dp425
g6
(lp426
(dp427
g9
S'File f = new File(filePathString);\nif (f.exists() && !f.isDirectory()) {\n}'
p428
sg11
I01
sasg14
I979
sg15
I1816676
sg16
I0
sa(dp429
g6
(lp430
(dp431
g9
S'new File("path/to/file.txt").isFile();'
p432
sg11
I01
sasg14
I341
sg15
I1816707
sg16
I1
sa(dp433
g6
(lp434
(dp435
g9
Vimport java.nio.file.*;\u000a\u000aPath path = Paths.get(filePathString);\u000a\u000aif (Files.exists(path)) {\u000a  // file exist\u000a}\u000a\u000aif (Files.notExists(path)) {\u000a  // file is not exist\u000a}\u000a
p436
sg11
I00
sa(dp437
g9
S'if (Files.isDirectory(path)) {\n}\nif (Files.isRegularFile(path)) {\n}'
p438
sg11
I01
sasg14
I91
sg15
I18371026
sg16
I2
sasg25
VHow do I check if a file exists in Java?
p439
ssI5993779
(dp440
g2
I5993823
sg3
(lp441
(dp442
g6
(lp443
(dp444
g9
S'String[] tokens = pdfName.split("-|\\\\.");'
p445
sg11
I01
sasg14
I198
sg15
I5993823
sg16
I0
sa(dp446
g6
(lp447
sg14
I37
sg15
I5993837
sg16
I1
sa(dp448
g6
(lp449
(dp450
g9
S'String[] tokens = pdfName.split("\\\\W");'
p451
sg11
I01
sasg14
I17
sg15
I13928086
sg16
I2
sasg25
VUse String.split() with multiple delimiters
p452
ssI2364856
(dp453
g2
I2364887
sg3
(lp454
(dp455
g6
(lp456
(dp457
g9
S'boolean[] array = new boolean[size];'
p458
sg11
I01
sa(dp459
g9
S'Boolean[] array = new Boolean[size];\nArrays.fill(array, Boolean.FALSE);'
p460
sg11
I01
sasg14
I200
sg15
I2364887
sg16
I0
sa(dp461
g6
(lp462
sg14
I11
sg15
I2364873
sg16
I1
sa(dp463
g6
(lp464
sg14
I7
sg15
I2364891
sg16
I2
sasg25
Vinitializing a boolean array in java
p465
ssI248562
(dp466
g2
I5351828
sg3
(lp467
(dp468
g6
(lp469
(dp470
g9
S'@RequestMapping(method = RequestMethod.GET)\npublic ModelAndView showResults(final HttpServletRequest request, Principal principal) {\n    final String currentUser = principal.getName();\n}'
p471
sg11
I01
sasg14
I214
sg15
I5351828
sg16
I0
sa(dp472
g6
(lp473
(dp474
g9
S'public interface SecurityContextFacade {\n\n    SecurityContext getContext();\n\n    void setContext(SecurityContext securityContext);\n}'
p475
sg11
I01
sa(dp476
g9
S'public class FooController {\n\n    private final SecurityContextFacade securityContextFacade;\n\n    public FooController(SecurityContextFacade securityContextFacade) {\n        this.securityContextFacade = securityContextFacade;\n    }\n\n    public void doSomething() {\n        SecurityContext context = securityContextFacade.getContext();\n    }\n}'
p477
sg11
I01
sa(dp478
g9
S'public class FooControllerTest {\n\n    private FooController controller;\n\n    private SecurityContextFacade mockSecurityContextFacade;\n\n    private SecurityContext mockSecurityContext;\n\n    @Before\n    public void setUp() throws Exception {\n        mockSecurityContextFacade = mock(SecurityContextFacade.class);\n        mockSecurityContext = mock(SecurityContext.class);\n        stub(mockSecurityContextFacade.getContext()).toReturn(mockSecurityContext);\n        controller = new FooController(mockSecurityContextFacade);\n    }\n\n    @Test\n    public void testDoSomething() {\n        controller.doSomething();\n        verify(mockSecurityContextFacade).getContext();\n    }\n}'
p479
sg11
I01
sa(dp480
g9
S'public class SecurityContextHolderFacade implements SecurityContextFacade {\n\n    public SecurityContext getContext() {\n        return SecurityContextHolder.getContext();\n    }\n\n    public void setContext(SecurityContext securityContext) {\n        SecurityContextHolder.setContext(securityContext);\n    }\n}'
p481
sg11
I01
sa(dp482
g9
V<bean id="myController" class="com.foo.FooController">\u000a     ...\u000a  <constructor-arg index="1">\u000a    <bean class="com.foo.SecurityContextHolderFacade">\u000a  </constructor-arg>\u000a</bean>\u000a
p483
sg11
I00
sasg14
I51
sg15
I885168
sg16
I1
sa(dp484
g6
(lp485
(dp486
g9
V<%@ taglib prefix="security" uri="http://www.springframework.org/security/tags" %>\u000a
p487
sg11
I00
sa(dp488
g9
V<security:authorize access="isAuthenticated()">\u000a    logged in as <security:authentication property="principal.username" /> \u000a</security:authorize>\u000a\u000a<security:authorize access="! isAuthenticated()">\u000a    not logged in\u000a</security:authorize>\u000a
p489
sg11
I00
sasg14
I20
sg15
I9763427
sg16
I2
sasg25
VWhen using Spring Security, what is the proper way to obtain current username (i.e. SecurityContext) information in a bean?
p490
ssI4967482
(dp491
g2
Nsg3
(lp492
(dp493
g6
(lp494
(dp495
g9
V<%\u000a    String redirectURL = "http://whatever.com/myJSPFile.jsp";\u000a    response.sendRedirect(redirectURL);\u000a%>\u000a
p496
sg11
I00
sasg14
I74
sg15
I4967495
sg16
I0
sa(dp497
g6
(lp498
(dp499
g9
V<c:redirect url="/home.html"/>\u000a
p500
sg11
I00
sasg14
I15
sg15
I26713723
sg16
I1
sa(dp501
g6
(lp502
(dp503
g9
V<form action="page2.jsp">\u000a    <input type="submit">\u000a</form>\u000a
p504
sg11
I00
sasg14
I4
sg15
I4968773
sg16
I2
sasg25
VRedirect pages in JSP?
p505
ssI2966334
(dp506
g2
I2966363
sg3
(lp507
(dp508
g6
(lp509
(dp510
g9
S'frame.add(new JLabel("<html>Text color: <font color=\'red\'>red</font></html>"));'
p511
sg11
I01
sasg14
I98
sg15
I2966363
sg16
I0
sa(dp512
g6
(lp513
(dp514
g9
S'JLabel title = new JLabel("I love stackoverflow!", JLabel.CENTER);\ntitle.setForeground(Color.white);'
p515
sg11
I01
sasg14
I37
sg15
I2966354
sg16
I1
sa(dp516
g6
(lp517
(dp518
g9
S'JLabel label = new JLabel("Text Color: Red");\nlabel.setForeground(Color.red);'
p519
sg11
I01
sasg14
I17
sg15
I2966359
sg16
I2
sasg25
VHow do I set the colour of a label (coloured text) in Java?
p520
ssI3605237
(dp521
g2
I3605320
sg3
(lp522
(dp523
g6
(lp524
(dp525
g9
S'Map<String, String> reversedMap = new TreeMap<String, String>(codes);\nfor (Map.Entry entry : reversedMap.entrySet()) {\n    System.out.println(entry.getKey() + ", " + entry.getValue());\n}'
p526
sg11
I01
sasg14
I30
sg15
I3605320
sg16
I0
sa(dp527
g6
(lp528
(dp529
g9
S'Map<String, String> map = getMyMap();\nList<String> keys = new ArrayList<String>(map.keySet());\nCollections.sort(keys, someComparator);\nfor (String key : keys) {\n    System.out.println(key + ": " + map.get(key));\n}'
p530
sg11
I01
sa(dp531
g9
S'public static <K, V extends Comparable<? super V>> Comparator<K> mapValueComparator(final Map<K, V> map) {\n    return new Comparator<K>() {\n\n        public int compare(K key1, K key2) {\n            return map.get(key1).compareTo(map.get(key2));\n        }\n    };\n}\npublic static <K, V> Comparator<K> mapValueComparator(final Map<K, V> map, final Comparator<V> comparator) {\n    return new Comparator<K>() {\n\n        public int compare(K key1, K key2) {\n            return comparator.compare(map.get(key1), map.get(key2));\n        }\n    };\n}'
p532
sg11
I01
sasg14
I11
sg15
I3605363
sg16
I1
sa(dp533
g6
(lp534
(dp535
g9
S'Iterator<Map.Entry<String, String>> i = codes.entrySet().iterator();\nwhile (i.hasNext()) {\n    String key = i.next().getKey();\n    System.out.println(key + ", " + codes.get(key));\n}'
p536
sg11
I01
sasg14
I5
sg15
I13467920
sg16
I2
sasg25
VHow print out the contents of a HashMap<String, String> in ascending order based on its values?
p537
ssI4040001
(dp538
g2
I4040014
sg3
(lp539
(dp540
g6
(lp541
(dp542
g9
S'if (max < numbersNeeded) {\n    throw new IllegalArgumentException("Can\'t ask for more numbers than are available");\n}\nRandom rng = new Random();\nSet<Integer> generated = new LinkedHashSet<Integer>();\nwhile (generated.size() < numbersNeeded) {\n    Integer next = rng.nextInt(max) + 1;\n    generated.add(next);\n}'
p543
sg11
I01
sasg14
I123
sg15
I4040014
sg16
I0
sa(dp544
g6
(lp545
(dp546
g9
S'import java.util.ArrayList;\nimport java.util.Random;\n\npublic class Test {\n\n    public static void main(String[] args) {\n        int size = 20;\n        ArrayList<Integer> list = new ArrayList<Integer>(size);\n        for (int i = 1; i <= size; i++) {\n            list.add(i);\n        }\n        Random rand = new Random();\n        while (list.size() > 0) {\n            int index = rand.nextInt(list.size());\n            System.out.println("Selected: " + list.remove(index));\n        }\n    }\n}'
p547
sg11
I01
sasg14
I14
sg15
I4040031
sg16
I1
sa(dp548
g6
(lp549
(dp550
g9
S'ArrayList<Integer> numbers = new ArrayList<Integer>();\nRandom randomGenerator = new Random();\nwhile (numbers.size() < 4) {\n    int random = randomGenerator.nextInt(4);\n    if (!numbers.contains(random)) {\n        numbers.add(random);\n    }\n}'
p551
sg11
I01
sasg14
I9
sg15
I10136855
sg16
I2
sasg25
VCreating random numbers with no duplicates
p552
ssI960431
(dp553
g2
I960449
sg3
(lp554
(dp555
g6
(lp556
(dp557
g9
S'int[] array = list.stream().mapToInt(i -> i).toArray();'
p558
sg11
I01
sasg14
I234
sg15
I23945015
sg16
I0
sa(dp559
g6
(lp560
(dp561
g9
VList<Integer> list = ...\u000aint[] ints = Ints.toArray(list);\u000a
p562
sg11
I00
sasg14
I164
sg15
I3176296
sg16
I1
sa(dp563
g6
(lp564
(dp565
g9
VList<Integer> myList;\u000a ... assign and fill the list\u000aint[] intArray = ArrayUtils.toPrimitive(myList.toArray(new Integer[myList.size()]));\u000a
p566
sg11
I00
sa(dp567
g9
Vstatic final Integer[] NO_INTS = new Integer[0];\u000a   ....\u000aint[] intArray2 = ArrayUtils.toPrimitive(myList.toArray(NO_INTS));\u000a
p568
sg11
I00
sasg14
I163
sg15
I960507
sg16
I2
sasg25
VHow to convert List<Integer> to int[] in Java?
p569
ssI109383
(dp570
g2
Nsg3
(lp571
(dp572
g6
(lp573
(dp574
g9
S'import java.util.*;\n\npublic class MapUtil {\n\n    public static <K, V extends Comparable<? super V>> Map<K, V> sortByValue(Map<K, V> map) {\n        List<Map.Entry<K, V>> list = new LinkedList<Map.Entry<K, V>>(map.entrySet());\n        Collections.sort(list, new Comparator<Map.Entry<K, V>>() {\n\n            public int compare(Map.Entry<K, V> o1, Map.Entry<K, V> o2) {\n                return (o1.getValue()).compareTo(o2.getValue());\n            }\n        });\n        Map<K, V> result = new LinkedHashMap<K, V>();\n        for (Map.Entry<K, V> entry : list) {\n            result.put(entry.getKey(), entry.getValue());\n        }\n        return result;\n    }\n}'
p575
sg11
I01
sa(dp576
g9
S'import java.util.*;\nimport org.junit.*;\n\npublic class MapUtilTest {\n\n    @Test\n    public void testSortByValue() {\n        Random random = new Random(System.currentTimeMillis());\n        Map<String, Integer> testMap = new HashMap<String, Integer>(1000);\n        for (int i = 0; i < 1000; ++i) {\n            testMap.put("SomeString" + random.nextInt(), random.nextInt());\n        }\n        testMap = MapUtil.sortByValue(testMap);\n        Assert.assertEquals(1000, testMap.size());\n        Integer previous = null;\n        for (Map.Entry<String, Integer> entry : testMap.entrySet()) {\n            Assert.assertNotNull(entry.getValue());\n            if (previous != null) {\n                Assert.assertTrue(entry.getValue() >= previous);\n            }\n            previous = entry.getValue();\n        }\n    }\n}'
p577
sg11
I01
sa(dp578
g9
S'public static <K, V extends Comparable<? super V>> Map<K, V> sortByValue(Map<K, V> map) {\n    List<Map.Entry<K, V>> list = new LinkedList<>(map.entrySet());\n    Collections.sort(list, new Comparator<Map.Entry<K, V>>() {\n\n        @Override\n        public int compare(Map.Entry<K, V> o1, Map.Entry<K, V> o2) {\n            return (o1.getValue()).compareTo(o2.getValue());\n        }\n    });\n    Map<K, V> result = new LinkedHashMap<>();\n    for (Map.Entry<K, V> entry : list) {\n        result.put(entry.getKey(), entry.getValue());\n    }\n    return result;\n}'
p579
sg11
I01
sa(dp580
g9
S'public static <K, V extends Comparable<? super V>> Map<K, V> sortByValue(Map<K, V> map) {\n    return map.entrySet().stream().sorted(Map.Entry.comparingByValue()).collect(Collectors.toMap(Map.Entry::getKey, Map.Entry::getValue, (e1, e2) -> e1, LinkedHashMap::new));\n}'
p581
sg11
I01
sasg14
I623
sg15
I2581754
sg16
I0
sa(dp582
g6
(lp583
(dp584
g9
S'public class Testing {\n\n    public static void main(String[] args) {\n        HashMap<String, Double> map = new HashMap<String, Double>();\n        ValueComparator bvc = new ValueComparator(map);\n        TreeMap<String, Double> sorted_map = new TreeMap<String, Double>(bvc);\n        map.put("A", 99.5);\n        map.put("B", 67.4);\n        map.put("C", 67.4);\n        map.put("D", 67.3);\n        System.out.println("unsorted map: " + map);\n        sorted_map.putAll(map);\n        System.out.println("results: " + sorted_map);\n    }\n}\n\nclass ValueComparator implements Comparator<String> {\n\n    Map<String, Double> base;\n\n    public ValueComparator(Map<String, Double> base) {\n        this.base = base;\n    }\n\n    public int compare(String a, String b) {\n        if (base.get(a) >= base.get(b)) {\n            return -1;\n        } else {\n            return 1;\n        }\n    }\n}'
p585
sg11
I01
sa(dp586
g9
Vunsorted map: {D=67.3, A=99.5, B=67.4, C=67.4}\u000aresults: {D=67.3, B=67.4, C=67.4, A=99.5}\u000a
p587
sg11
I00
sasg14
I384
sg15
I1283722
sg16
I1
sa(dp588
g6
(lp589
(dp590
g9
S'valueComparator = Ordering.natural().onResultOf(Functions.forMap(map));'
p591
sg11
I01
sa(dp592
g9
S'valueComparator = Ordering.from(comparator).onResultOf(Functions.forMap(map));'
p593
sg11
I01
sa(dp594
g9
S'valueComparator = Ordering.natural().onResultOf(Functions.forMap(map)).compound(Ordering.natural());'
p595
sg11
I01
sa(dp596
g9
S'map = ImmutableSortedMap.copyOf(myOriginalMap, valueComparator);'
p597
sg11
I01
sa(dp598
g9
S'import static org.junit.Assert.assertEquals;\nimport java.util.HashMap;\nimport java.util.Map;\nimport java.util.TreeMap;\nimport com.google.common.base.Functions;\nimport com.google.common.collect.Ordering;\n\nclass ValueComparableMap<K extends Comparable<K>, V> extends TreeMap<K, V> {\n\n    private final Map<K, V> valueMap;\n\n    ValueComparableMap(final Ordering<? super V> partialValueOrdering) {\n        this(partialValueOrdering, new HashMap<K, V>());\n    }\n\n    private ValueComparableMap(Ordering<? super V> partialValueOrdering, HashMap<K, V> valueMap) {\n        super(partialValueOrdering.onResultOf(Functions.forMap(valueMap)).compound(Ordering.natural()));\n        this.valueMap = valueMap;\n    }\n\n    public V put(K k, V v) {\n        if (valueMap.containsKey(k)) {\n            remove(k);\n        }\n        valueMap.put(k, v);\n        return super.put(k, v);\n    }\n\n    public static void main(String[] args) {\n        TreeMap<String, Integer> map = new ValueComparableMap<String, Integer>(Ordering.natural());\n        map.put("a", 5);\n        map.put("b", 1);\n        map.put("c", 3);\n        assertEquals("b", map.firstKey());\n        assertEquals("a", map.lastKey());\n        map.put("d", 0);\n        assertEquals("d", map.firstKey());\n        map.put("d", 2);\n        assertEquals("b", map.firstKey());\n        map.put("e", 2);\n        assertEquals(5, map.size());\n        assertEquals(2, (int) map.get("e"));\n        assertEquals(2, (int) map.get("d"));\n    }\n}'
p599
sg11
I01
sa(dp600
g9
S'new ValueComparableMap(Ordering.natural());\nnew ValueComparableMap(Ordering.from(comparator));'
p601
sg11
I01
sasg14
I193
sg15
I3420912
sg16
I2
sasg25
VSort a Map<Key, Value> by values (Java)
p602
ssI4377842
(dp603
g2
I4377856
sg3
(lp604
(dp605
g6
(lp606
(dp607
g9
S'float z = (float) x / y;'
p608
sg11
I01
sa(dp609
g9
S'float z = x / (float) y;'
p610
sg11
I01
sa(dp611
g9
S'float z = (float) x / (float) y;'
p612
sg11
I01
sasg14
I94
sg15
I4377856
sg16
I0
sa(dp613
g6
(lp614
(dp615
g9
S'int x = 1111111111;\nint y = 10000;\nfloat f = (float) x / y;\ndouble d = (double) x / y;\nSystem.out.println("f= " + f);\nSystem.out.println("d= " + d);'
p616
sg11
I01
sa(dp617
g9
Vf= 111111.12\u000ad= 111111.1111\u000a
p618
sg11
I00
sasg14
I5
sg15
I4378579
sg16
I1
sa(dp619
g6
(lp620
(dp621
g9
S'float z = x * 1.0 / y;'
p622
sg11
I01
sasg14
I4
sg15
I10359504
sg16
I2
sasg25
VHow can I convert integer into float in Java?
p623
ssI2564298
(dp624
g2
I2564303
sg3
(lp625
(dp626
g6
(lp627
(dp628
g9
S'String[] errorSoon;\nString[] errorSoon = new String[100];'
p629
sg11
I01
sa(dp630
g9
S'String[] errorSoon = { "Hello", "World" };'
p631
sg11
I01
sa(dp632
g9
S'String[] errorSoon = new String[2];\nerrorSoon[0] = "Hello";\nerrorSoon[1] = "World";'
p633
sg11
I01
sasg14
I194
sg15
I2564303
sg16
I0
sa(dp634
g6
(lp635
(dp636
g9
S'String[] args = new String[] { "firstarg", "secondarg", "thirdarg" };'
p637
sg11
I01
sasg14
I84
sg15
I20992528
sg16
I1
sa(dp638
g6
(lp639
(dp640
g9
S'String[] errorSoon = { "foo", "bar" };'
p641
sg11
I01
sa(dp642
g9
S'String[] errorSoon = new String[2];\nerrorSoon[0] = "foo";\nerrorSoon[1] = "bar";'
p643
sg11
I01
sasg14
I19
sg15
I2564314
sg16
I2
sasg25
VJava: how to initialize String[]?
p644
ssI4240080
(dp645
g2
I4240323
sg3
(lp646
(dp647
g6
(lp648
(dp649
g9
S'public static void permutation(String str) {\n    permutation("", str);\n}\nprivate static void permutation(String prefix, String str) {\n    int n = str.length();\n    if (n == 0)\n        System.out.println(prefix);\n    else {\n        for (int i = 0; i < n; i++) permutation(prefix + str.charAt(i), str.substring(0, i) + str.substring(i + 1, n));\n    }\n}'
p650
sg11
I01
sasg14
I454
sg15
I4240323
sg16
I0
sa(dp651
g6
(lp652
sg14
I167
sg15
I4240098
sg16
I1
sa(dp653
g6
(lp654
(dp655
g9
S'public static ArrayList<String> permutation(String s) {\n    ArrayList<String> res = new ArrayList<String>();\n    if (s.length() == 1) {\n        res.add(s);\n    } else if (s.length() > 1) {\n        int lastIndex = s.length() - 1;\n        String last = s.substring(lastIndex);\n        String rest = s.substring(0, lastIndex);\n        res = merge(permutation(rest), last);\n    }\n    return res;\n}\npublic static ArrayList<String> merge(ArrayList<String> list, String c) {\n    ArrayList<String> res = new ArrayList<String>();\n    for (String s : list) {\n        for (int i = 0; i <= s.length(); ++i) {\n            String ps = new StringBuffer(s).insert(i, c).toString();\n            res.add(ps);\n        }\n    }\n    return res;\n}'
p656
sg11
I01
sasg14
I58
sg15
I19624586
sg16
I2
sasg25
VGenerating all permutations of a given string
p657
ssI11409621
(dp658
g2
I11409778
sg3
(lp659
(dp660
g6
(lp661
(dp662
g9
S'for (int i = 0; i < 5; i++) System.out.println("    *********".substring(i, 5 + 2 * i));'
p663
sg11
I01
sasg14
I16
sg15
I11410241
sg16
I0
sa(dp664
g6
(lp665
(dp666
g9
S'for (int i = 1; i < 10; i += 2) {\n    for (int j = 0; j < i; j++) {\n        System.out.print("*");\n    }\n    System.out.println("");\n}'
p667
sg11
I01
sa(dp668
g9
S'for (int i = 1; i < 10; i += 2) {\n    for (int k = 0; k < (4 - i / 2); k++) {\n        System.out.print(" ");\n    }\n    for (int j = 0; j < i; j++) {\n        System.out.print("*");\n    }\n    System.out.println("");\n}'
p669
sg11
I01
sasg14
I12
sg15
I11409778
sg16
I1
sa(dp670
g6
(lp671
(dp672
g9
S'public void printTriangleLine(int rowNumber) {\n}'
p673
sg11
I01
sa(dp674
g9
S'public void printTriangleLine(int rowNumber) {\n    printSequence(" ", 5 - rowNumber);\n    printSequence("*", 2 * rowNumber + 1);\n    System.out.println();\n}'
p675
sg11
I01
sa(dp676
g9
S'public void printSequence(String s, int repeats) {\n    for (int i = 0; i < repeats; i++) {\n        System.out.print(s);\n    }\n}'
p677
sg11
I01
sa(dp678
g9
S'public static void main(String[] args) {\n    printSequence("a", 3);\n    System.out.println();\n    printTriangleLine(2);\n}'
p679
sg11
I01
sa(dp680
g9
Vaaa\u000a   *****\u000a
p681
sg11
I00
sa(dp682
g9
VassertEquals("   *****", TriangleDrawer.triangleLine(2));\u000aassertEquals("     *", TriangleDrawer.triangleLine(0))\u000a
p683
sg11
I00
sa(dp684
g9
S'public void drawTriangle() {\n    for (int i = 0; i < 5; i++) {\n        printTriangleLine(i);\n    }\n}'
p685
sg11
I01
sasg14
I3
sg15
I12055109
sg16
I2
sasg25
VCreating a triangle with for loops
p686
ssI3395286
(dp687
g2
I3395345
sg3
(lp688
(dp689
g6
(lp690
(dp691
g9
S'String prefix = "";\nfor (String serverId : serverIds) {\n    sb.append(prefix);\n    prefix = ",";\n    sb.append(serverId);\n}'
p692
sg11
I01
sasg14
I430
sg15
I3395345
sg16
I0
sa(dp693
g6
(lp694
(dp695
g9
S'sb.setLength(sb.length() - 1);'
p696
sg11
I01
sa(dp697
g9
S'if (sb.length() > 0) {\n    sb.setLength(sb.length() - 1);\n}'
p698
sg11
I01
sa(dp699
g9
S'sb.setLength(Math.max(sb.length() - 1, 0));'
p700
sg11
I01
sasg14
I251
sg15
I3395329
sg16
I1
sa(dp701
g6
(lp702
(dp703
g9
S'sb.deleteCharAt(sb.length() - 1);'
p704
sg11
I01
sasg14
I101
sg15
I3395299
sg16
I2
sasg25
VRemove last character of a StringBuilder?
p705
ssI7833689
(dp706
g2
Nsg3
(lp707
(dp708
g6
(lp709
(dp710
g9
S'System.out.println("I\\nam\\na\\nboy");\nSystem.out.println("I am a boy".replaceAll("\\\\s+", "\\n"));\nSystem.out.println("I am a boy".replaceAll("\\\\s+", System.getProperty("line.separator")));'
p711
sg11
I01
sasg14
I97
sg15
I7833713
sg16
I0
sa(dp712
g6
(lp713
(dp714
g9
S'String x = "Hello," + System.lineSeparator() + "there";'
p715
sg11
I01
sasg14
I55
sg15
I31599937
sg16
I1
sa(dp716
g6
(lp717
(dp718
g9
S'System.out.println("I\\nam\\na\\nboy");'
p719
sg11
I01
sasg14
I12
sg15
I7833702
sg16
I2
sasg25
VJava String new line
p720
ssI16027229
(dp721
g2
I16027293
sg3
(lp722
(dp723
g6
(lp724
(dp725
g9
S'import java.io.BufferedReader;\nimport java.io.FileReader;\nimport java.io.IOException;'
p726
sg11
I01
sa(dp727
g9
S'String readFile(String fileName) throws IOException {\n    BufferedReader br = new BufferedReader(new FileReader(fileName));\n    try {\n        StringBuilder sb = new StringBuilder();\n        String line = br.readLine();\n        while (line != null) {\n            sb.append(line);\n            sb.append("\\n");\n            line = br.readLine();\n        }\n        return sb.toString();\n    } finally {\n        br.close();\n    }\n}'
p728
sg11
I01
sasg14
I50
sg15
I16027293
sg16
I0
sa(dp729
g6
(lp730
sg14
I1
sg15
I16034306
sg16
I1
sasg25
VReading from a text file and storing in a String
p731
ssI2891361
(dp732
g2
I2891412
sg3
(lp733
(dp734
g6
(lp735
(dp736
g9
S'SimpleDateFormat isoFormat = new SimpleDateFormat("yyyy-MM-dd\'T\'HH:mm:ss");\nisoFormat.setTimeZone(TimeZone.getTimeZone("UTC"));\nDate date = isoFormat.parse("2010-05-23T09:01:02");'
p737
sg11
I01
sasg14
I197
sg15
I2891412
sg16
I0
sa(dp738
g6
(lp739
sg14
I113
sg15
I2892156
sg16
I1
sa(dp740
g6
(lp741
(dp742
g9
S'Date date1 = new Date();\nSystem.out.println(date1);\nTimeZone.setDefault(TimeZone.getTimeZone("UTC"));\nDate date2 = new Date();\nSystem.out.println(date2);'
p743
sg11
I01
sa(dp744
g9
VThu Sep 05 10:11:12 EDT 2013\u000aThu Sep 05 14:11:12 UTC 2013\u000a
p745
sg11
I00
sasg14
I46
sg15
I18638742
sg16
I2
sasg25
VHow to set time zone of a java.util.Date?
p746
ssI7522022
(dp747
g2
Nsg3
(lp748
(dp749
g6
(lp750
(dp751
g9
S'System.out.print("hello");\nThread.sleep(1000);\nSystem.out.print("\\b\\b\\b\\b\\b");\nSystem.out.print("world");'
p752
sg11
I01
sasg14
I44
sg15
I7522190
sg16
I0
sa(dp753
g6
(lp754
(dp755
g9
S'Runtime.getRuntime().exec("cls");'
p756
sg11
I01
sa(dp757
g9
S'System.setOut(new PrintStream(new OutputStream() {\n\n    @Override\n    public void write(int b) throws IOException {\n    }\n}));'
p758
sg11
I01
sasg14
I21
sg15
I7522075
sg16
I1
sa(dp759
g6
(lp760
(dp761
g9
S'int count = 1;\nSystem.out.print(String.format("\\033[%dA", count));\nSystem.out.print("\\033[2K");'
p762
sg11
I01
sa(dp763
g9
S'System.out.print(String.format("\\033[2J"));'
p764
sg11
I01
sasg14
I11
sg15
I22083329
sg16
I2
sasg25
VHow to delete stuff printed to console by System.out.println()?
p765
ssI473446
(dp766
g2
I473470
sg3
(lp767
(dp768
g6
(lp769
(dp770
g9
S'System.getProperty("user.name");'
p771
sg11
I01
sa(dp772
g9
S'java.net.InetAddress localMachine = java.net.InetAddress.getLocalHost();\nSystem.out.println("Hostname of local machine: " + localMachine.getHostName());'
p773
sg11
I01
sasg14
I200
sg15
I473470
sg16
I0
sa(dp774
g6
(lp775
(dp776
g9
S'System.getProperty("user.name");'
p777
sg11
I01
sa(dp778
g9
S'InetAddress.getLocalHost().getHostName();'
p779
sg11
I01
sasg14
I75
sg15
I473544
sg16
I1
sa(dp780
g6
(lp781
sg14
I10
sg15
I12565525
sg16
I2
sasg25
VJava current machine name and logged in user?
p782
ssI3806062
(dp783
g2
I3806154
sg3
(lp784
(dp785
g6
(lp786
(dp787
g9
S'List<Integer> list = new ArrayList<Integer>();\nFile file = new File("file.txt");\nBufferedReader reader = null;\ntry {\n    reader = new BufferedReader(new FileReader(file));\n    String text = null;\n    while ((text = reader.readLine()) != null) {\n        list.add(Integer.parseInt(text));\n    }\n} catch (FileNotFoundException e) {\n    e.printStackTrace();\n} catch (IOException e) {\n    e.printStackTrace();\n} finally {\n    try {\n        if (reader != null) {\n            reader.close();\n        }\n    } catch (IOException e) {\n    }\n}\nSystem.out.println(list);'
p788
sg11
I01
sasg14
I42
sg15
I3806154
sg16
I0
sa(dp789
g6
(lp790
(dp791
g9
S'Path filePath = Paths.get("file.txt");\nScanner scanner = new Scanner(filePath);\nList<Integer> integers = new ArrayList<>();\nwhile (scanner.hasNext()) {\n    if (scanner.hasNextInt()) {\n        integers.add(scanner.nextInt());\n    } else {\n        scanner.next();\n    }\n}'
p792
sg11
I01
sasg14
I9
sg15
I24388473
sg16
I1
sa(dp793
g6
(lp794
(dp795
g9
S'try {\n    BufferedReader br = new BufferedReader(new FileReader("textfile.txt"));\n    String strLine;\n    while ((strLine = br.readLine()) != null) {\n        System.out.println(strLine);\n    }\n    in.close();\n} catch (Exception e) {\n    System.err.println("Error: " + e.getMessage());\n} finally {\n    in.close();\n}'
p796
sg11
I01
sa(dp797
g9
S'System.out.println(strLine);'
p798
sg11
I01
sa(dp799
g9
S'try {\n    int i = Integer.parseInt(strLine);\n} catch (NumberFormatException npe) {\n}'
p800
sg11
I01
sa(dp801
g9
S'try {\n    String[] noInStringArr = strLine.split(" ");\n} catch (NumberFormatException npe) {\n}'
p802
sg11
I01
sasg14
I3
sg15
I3806123
sg16
I2
sasg25
VHow to open a txt file and read numbers in java
p803
ssI3402735
(dp804
g2
I3403112
sg3
(lp805
(dp806
g6
(lp807
(dp808
g9
S'String content = new Scanner(new File("filename")).useDelimiter("\\\\Z").next();\nSystem.out.println(content);'
p809
sg11
I01
sasg14
I270
sg15
I3403112
sg16
I0
sa(dp810
g6
(lp811
sg14
I139
sg15
I16999974
sg16
I1
sa(dp812
g6
(lp813
(dp814
g9
S'FileInputStream fisTargetFile = new FileInputStream(new File("test.txt"));\nString targetFileStr = IOUtils.toString(fisTargetFile, "UTF-8");'
p815
sg11
I01
sasg14
I33
sg15
I3403080
sg16
I2
sasg25
VWhat is simplest way to read a file into String?
p816
ssI2525042
(dp817
g2
I2525152
sg3
(lp818
(dp819
g6
(lp820
(dp821
g9
S'public void testJackson() throws IOException {\n    ObjectMapper mapper = new ObjectMapper();\n    File from = new File("albumnList.txt");\n    TypeReference<HashMap<String, Object>> typeRef = new TypeReference<HashMap<String, Object>>() {\n    };\n    HashMap<String, Object> o = mapper.readValue(from, typeRef);\n    System.out.println("Got " + o);\n}'
p822
sg11
I01
sa(dp823
g9
S'new ByteArrayInputStream(astring.getBytes("UTF-8"));'
p824
sg11
I01
sasg14
I193
sg15
I2525152
sg16
I0
sa(dp825
g6
(lp826
(dp827
g9
S'Map<String, String> result;\nObjectMapper mapper;\nTypeFactory factory;\nMapType type;\nfactory = TypeFactory.defaultInstance();\ntype = factory.constructMapType(HashMap.class, String.class, String.class);\nmapper = new ObjectMapper();\nresult = mapper.readValue(data, type);'
p828
sg11
I01
sa(dp829
g9
S'Map<String, String> result = new ObjectMapper().readValue(data, TypeFactory.mapType(HashMap.class, String.class, String.class));'
p830
sg11
I01
sasg14
I35
sg15
I3076569
sg16
I1
sa(dp831
g6
(lp832
(dp833
g9
VHashMap<String,Object> props;\u000a\u000a// src is a File, InputStream, String or such\u000aprops = new ObjectMapper().readValue(src, new TypeReference<HashMap<String,Object>>() {});\u000a// or:\u000aprops = (HashMap<String,Object>) new ObjectMapper().readValue(src, HashMap.class);\u000a// or even just:\u000a@SuppressWarnings("unchecked") // suppresses typed/untype mismatch warnings, which is harmless\u000aprops = new ObjectMapper().readValue(src, HashMap.class);\u000a
p834
sg11
I00
sasg14
I16
sg15
I2525729
sg16
I2
sasg25
VHow to convert a JSON string to a Map<String, String> with Jackson JSON
p835
ssI8559092
(dp836
g2
I8559102
sg3
(lp837
(dp838
g6
(lp839
(dp840
g9
S'ArrayList<ArrayList<Individual>> group = new ArrayList<ArrayList<Individual>>(4);'
p841
sg11
I01
sa(dp842
g9
S'List<List<Individual>> group = new ArrayList<List<Individual>>(4);'
p843
sg11
I01
sasg14
I93
sg15
I8559102
sg16
I0
sa(dp844
g6
(lp845
(dp846
g9
S'ArrayList<Individual>[] group = (ArrayList<Individual>[]) new ArrayList[4];'
p847
sg11
I01
sasg14
I55
sg15
I8559232
sg16
I1
sa(dp848
g6
(lp849
(dp850
g9
S'ArrayList<String>[] group = new ArrayList[4];'
p851
sg11
I01
sasg14
I36
sg15
I28588120
sg16
I2
sasg25
VCreate an Array of Arraylists
p852
ssI1383797
(dp853
g2
I1383830
sg3
(lp854
(dp855
g6
(lp856
(dp857
g9
S'public static <T, E> Set<T> getKeysByValue(Map<T, E> map, E value) {\n    Set<T> keys = new HashSet<T>();\n    for (Entry<T, E> entry : map.entrySet()) {\n        if (Objects.equals(value, entry.getValue())) {\n            keys.add(entry.getKey());\n        }\n    }\n    return keys;\n}'
p858
sg11
I01
sa(dp859
g9
S'public static <T, E> T getKeyByValue(Map<T, E> map, E value) {\n    for (Entry<T, E> entry : map.entrySet()) {\n        if (Objects.equals(value, entry.getValue())) {\n            return entry.getKey();\n        }\n    }\n    return null;\n}'
p860
sg11
I01
sa(dp861
g9
S'public static <T, E> Set<T> getKeysByValue(Map<T, E> map, E value) {\n    return map.entrySet().stream().filter(entry -> Objects.equals(entry.getValue(), value)).map(Map.Entry::getKey).collect(Collectors.toSet());\n}'
p862
sg11
I01
sa(dp863
g9
S"BiMap<Token, Character> tokenToChar = ImmutableBiMap.of(Token.LEFT_BRACKET, '[', Token.LEFT_PARENTHESIS, '(');\nToken token = tokenToChar.inverse().get('(');\nCharacter c = tokenToChar.get(token);"
p864
sg11
I01
sasg14
I511
sg15
I2904266
sg16
I0
sa(dp865
g6
(lp866
sg14
I165
sg15
I1383830
sg16
I1
sa(dp867
g6
(lp868
(dp869
g9
S'public class NewClass1 {\n\n    public static void main(String[] args) {\n        Map<Integer, String> testMap = new HashMap<Integer, String>();\n        testMap.put(10, "a");\n        testMap.put(20, "b");\n        testMap.put(30, "c");\n        testMap.put(40, "d");\n        for (Entry<Integer, String> entry : testMap.entrySet()) {\n            if (entry.getValue().equals("c")) {\n                System.out.println(entry.getKey());\n            }\n        }\n    }\n}'
p870
sg11
I01
sa(dp871
g9
V1. Key to value\u000a\u000a2. Value to key \u000a
p872
sg11
I00
sasg14
I56
sg15
I7737428
sg16
I2
sasg25
VJava Hashmap: How to get key from value?
p873
ssI18441846
(dp874
g2
I18441978
sg3
(lp875
(dp876
g6
(lp877
(dp878
g9
VList<Fruit> fruits= new ArrayList<Fruit>();\u000a\u000aFruit fruit;\u000afor(int i = 0; i < 100; i++)\u000a{\u000a  fruit = new Fruit();\u000a  fruit.setname(...);\u000a  fruits.add(fruit);\u000a}\u000a\u000a// Sorting\u000aCollections.sort(fruits, new Comparator<Fruit>() {\u000a        @Override\u000a        public int compare(Fruit fruit2, Fruit fruit1)\u000a        {\u000a\u000a            return  fruit1.fruitName.compareTo(fruit2.fruitName);\u000a        }\u000a    });\u000a
p879
sg11
I00
sasg14
I340
sg15
I18441978
sg16
I0
sa(dp880
g6
(lp881
(dp882
g9
Vpublic class Fruit implements Comparable<Fruit> {\u000a
p883
sg11
I00
sa(dp884
g9
S'@Override\npublic int compareTo(Fruit fruit) {\n}'
p885
sg11
I01
sa(dp886
g9
S'Collections.sort(fruitList);'
p887
sg11
I01
sasg14
I79
sg15
I18441875
sg16
I1
sa(dp888
g6
(lp889
(dp890
g9
S'BeanComparator fieldComparator = new BeanComparator("fruitName");\nCollections.sort(fruits, fieldComparator);'
p891
sg11
I01
sasg14
I11
sg15
I18441879
sg16
I2
sasg25
VHow to sort an ArrayList in Java
p892
ssI112503
(dp893
g2
I112542
sg3
(lp894
(dp895
g6
(lp896
(dp897
g9
S'List<String> list = new ArrayList<String>(Arrays.asList(array));\nlist.removeAll(Arrays.asList("a"));\narray = list.toArray(array);'
p898
sg11
I01
sa(dp899
g9
S'array = list.toArray(new String[0]);'
p900
sg11
I01
sa(dp901
g9
S'private static final String[] EMPTY_STRING_ARRAY = new String[0];'
p902
sg11
I01
sa(dp903
g9
S'List<String> list = new ArrayList<>();\nCollections.addAll(list, array);\nlist.removeAll(Arrays.asList("a"));\narray = list.toArray(EMPTY_STRING_ARRAY);'
p904
sg11
I01
sa(dp905
g9
S'array = list.toArray(new String[list.size()]);'
p906
sg11
I01
sasg14
I90
sg15
I112542
sg16
I0
sa(dp907
g6
(lp908
sg14
I20
sg15
I112507
sg16
I1
sa(dp909
g6
(lp910
(dp911
g9
S'String[] filteredArray = Arrays.stream(array).filter(e -> !e.equals(foo)).toArray(String[]::new);'
p912
sg11
I01
sasg14
I17
sg15
I23188826
sg16
I2
sasg25
VHow do I remove objects from an array in Java?
p913
ssI1519736
(dp914
g2
I1520212
sg3
(lp915
(dp916
g6
(lp917
(dp918
g9
S'import java.util.*;\nimport java.util.concurrent.ThreadLocalRandom;\n\nclass Test {\n\n    public static void main(String[] args) {\n        int[] solutionArray = { 1, 2, 3, 4, 5, 6, 16, 15, 14, 13, 12, 11 };\n        shuffleArray(solutionArray);\n        for (int i = 0; i < solutionArray.length; i++) {\n            System.out.print(solutionArray[i] + " ");\n        }\n        System.out.println();\n    }\n\n    static void shuffleArray(int[] ar) {\n        Random rnd = ThreadLocalRandom.current();\n        for (int i = ar.length - 1; i > 0; i--) {\n            int index = rnd.nextInt(i + 1);\n            int a = ar[index];\n            ar[index] = ar[i];\n            ar[i] = a;\n        }\n    }\n}'
p919
sg11
I01
sasg14
I203
sg15
I1520212
sg16
I0
sa(dp920
g6
(lp921
(dp922
g9
S'List<Integer> solution = new ArrayList<>();\nfor (int i = 1; i <= 6; i++) {\n    solution.add(i);\n}\nCollections.shuffle(solution);'
p923
sg11
I01
sasg14
I100
sg15
I3732080
sg16
I1
sa(dp924
g6
(lp925
(dp926
g9
S'private static void shuffleArray(int[] array) {\n    int index;\n    Random random = new Random();\n    for (int i = array.length - 1; i > 0; i--) {\n        index = random.nextInt(i + 1);\n        if (index != i) {\n            array[index] ^= array[i];\n            array[i] ^= array[index];\n            array[index] ^= array[i];\n        }\n    }\n}'
p927
sg11
I01
sa(dp928
g9
S'private static void shuffleArray(int[] array) {\n    int index, temp;\n    Random random = new Random();\n    for (int i = array.length - 1; i > 0; i--) {\n        index = random.nextInt(i + 1);\n        temp = array[index];\n        array[index] = array[i];\n        array[i] = temp;\n    }\n}'
p929
sg11
I01
sasg14
I71
sg15
I18456998
sg16
I2
sasg25
VRandom shuffling of an array
p930
ssI867194
(dp931
g2
I867206
sg3
(lp932
(dp933
g6
(lp934
(dp935
g9
S'if (!resultSet.isBeforeFirst()) {\n    System.out.println("No data");\n}'
p936
sg11
I01
sasg14
I398
sg15
I6813771
sg16
I0
sa(dp937
g6
(lp938
sg14
I161
sg15
I867206
sg16
I1
sa(dp939
g6
(lp940
(dp941
g9
S'if (!resultSet.next()) {\n    System.out.println("no data");\n} else {\n    do {\n    } while (resultSet.next());\n}'
p942
sg11
I01
sasg14
I37
sg15
I930757
sg16
I2
sasg25
VJava ResultSet how to check if there are any results
p943
ssI2310139
(dp944
g2
I2325128
sg3
(lp945
(dp946
g6
(lp947
(dp948
g9
S'XMLReader myReader = XMLReaderFactory.createXMLReader();\nmyReader.setContentHandler(handler);\nmyReader.parse(new InputSource(new URL(url).openStream()));\nDocumentBuilderFactory dbf = DocumentBuilderFactory.newInstance();\nDocumentBuilder db = dbf.newDocumentBuilder();\nDocument doc = db.parse(new URL(url).openStream());'
p949
sg11
I01
sasg14
I67
sg15
I2325128
sg16
I0
sa(dp950
g6
(lp951
(dp952
g9
S'URL url = new URL(urlString);\nURLConnection conn = url.openConnection();\nDocumentBuilderFactory factory = DocumentBuilderFactory.newInstance();\nDocumentBuilder builder = factory.newDocumentBuilder();\nDocument doc = builder.parse(conn.getInputStream());\nTransformerFactory factory = TransformerFactory.newInstance();\nTransformer xform = factory.newTransformer();\nxform.transform(new DOMSource(doc), new StreamResult(System.out));'
p953
sg11
I01
sasg14
I8
sg15
I2632593
sg16
I1
sa(dp954
g6
(lp955
sg14
I5
sg15
I2310219
sg16
I2
sasg25
VHow to read XML response from a URL in java?
p956
ssI454908
(dp957
g2
I454913
sg3
(lp958
(dp959
g6
(lp960
(dp961
g9
S'String[] lines = string.split("\\\\r?\\\\n");'
p962
sg11
I01
sasg14
I513
sg15
I454913
sg16
I0
sa(dp963
g6
(lp964
(dp965
g9
S'String.split("[\\\\r\\\\n]+");'
p966
sg11
I01
sasg14
I91
sg15
I454919
sg16
I1
sa(dp967
g6
(lp968
sg14
I51
sg15
I31060125
sg16
I2
sasg25
VSplit Java String by New Line
p969
ssI12678781
(dp970
g2
Nsg3
(lp971
(dp972
g6
(lp973
(dp974
g9
S'List<Integer> list = Arrays.asList(1, 4, 9, 16, 9, 7, 4, 9, 11);\nSystem.out.println(list);\nCollections.reverse(list);\nSystem.out.println(list);'
p975
sg11
I01
sa(dp976
g9
V[1, 4, 9, 16, 9, 7, 4, 9, 11]\u000a[11, 9, 4, 7, 9, 16, 9, 4, 1]\u000a
p977
sg11
I00
sasg14
I61
sg15
I12678806
sg16
I0
sa(dp978
g6
(lp979
(dp980
g9
S'Collections.reverse(Arrays.asList(array));'
p981
sg11
I01
sasg14
I49
sg15
I12678867
sg16
I1
sa(dp982
g6
(lp983
(dp984
g9
S'for (i = 0; i < array.length / 2; i++) {\n    int temp = array[i];\n    array[i] = array[array.length - 1 - i];\n    array[array.length - 1 - i] = temp;\n}'
p985
sg11
I01
sasg14
I25
sg15
I12678906
sg16
I2
sasg25
VReversing an Array in Java
p986
ss.